(dp1
S''
S''
sS'http://www.iitb.ac.in/en/researchdomain/waterresources'
p2
S'Water Resources | IIT Bombay'
p3
sS'http://www.cse.iitb.ac.in'
p4
S'CSE, IIT Bombay'
p5
sS'http://www.ir.iitb.ac.in/?page_id=828'
p6
S'IIT Bombay \xe2\x80\x94 International Relations'
p7
sS'https://www.ee.iitb.ac.in/web/faculty/homepage/agarwal'
p8
S'Department of Electrical Engineering, Indian Institute of Technology Bombay '
p9
sS'http://www.met.iitb.ac.in/main.html?sec=research&content=projects/home&extra=projects/allproj'
p10
S'MEMS IITBombay'
p11
sS'http://www1.iitb.ac.in/academic/sitemap.jsp'
p12
S'Site Map'
p13
sS'http://www.casde.iitb.ac.in/se/'
p14
S'CASDE - Systems Engineering'
p15
sS'http://www.ircc.iitb.ac.in/IRCCWebpage/rnd/LicensingTechnologies.jsp?TechnologySrNo=1&CategorySrNo=5'
p16
S'IIT Bombay Technologies for Licensing'
p17
sS'http://www.ircc.iitb.ac.in/IRCCWebpage/rnd/LicensingTechnologies.jsp?TechnologySrNo=1&CategorySrNo=4'
p18
S'IIT Bombay Technologies for Licensing'
p19
sS'http://www.ircc.iitb.ac.in/IRCCWebpage/rnd/LicensingTechnologies.jsp?TechnologySrNo=1&CategorySrNo=1'
p20
S'IIT Bombay Technologies for Licensing'
p21
sS'http://www.ircc.iitb.ac.in/IRCCWebpage/rnd/LicensingTechnologies.jsp?TechnologySrNo=1&CategorySrNo=3'
p22
S'IIT Bombay Technologies for Licensing'
p23
sS'http://www.ircc.iitb.ac.in/IRCCWebpage/rnd/LicensingTechnologies.jsp?TechnologySrNo=1&CategorySrNo=2'
p24
S'IIT Bombay Technologies for Licensing'
p25
sS'http://www1.iitb.ac.in/deanpl/Hindi_Version/index.html'
p26
S'Untitled Document'
p27
sS'http://www1.iitb.ac.in/students/hostel9.html'
p28
S'Hostels - IIT Bombay'
p29
sS'http://www1.iitb.ac.in/students/hostel1.html'
p30
S'Hostels - IIT Bombay'
p31
sS'http://www.iitb.ac.in/sites/default/files/ReimbursementPRMS.pdf'
p32
S'http://www.iitb.ac.in/sites/default/files/ReimbursementPRMS.pdf'
p33
sS'http://www1.iitb.ac.in/deanpl/emd1.html'
p34
S'Untitled Document'
p35
sS'http://www.hss.iitb.ac.in/home/'
p36
S'Dept of Humanities &amp; Social Sciences'
p37
sS'http://www.casde.iitb.ac.in/academics/'
p38
S'CASDE - Academics'
p39
sS'http://www.cc.iitb.ac.in/index.php?option=com_content&view=article&id=110&Itemid=187&lang=en'
p40
S'Problem Reporting'
p41
sS'http://www1.iitb.ac.in/WomensCell/data/surangadateessay2011.pdf'
p42
S'http://www1.iitb.ac.in/WomensCell/data/suranga-date-essay-2011.pdf'
p43
sS'http://gymkhana.iitb.ac.in/~cultural/phase214.html'
p44
S'IITB Culturals | Freshiezza'
p45
sS'http://www.casde.iitb.ac.in/publications/'
p46
S'CASDE - Publications'
p47
sS'http://www.iitb.ac.in/alumni/en/AlumniAssociation'
p48
S'Alumni Association | Alumni and Corporate Relations'
p49
sS'http://www.iitb.ac.in/newacadhome/sscforms/ssc.jsp'
p50
S'WELCOME TO THE ACADEMICS HOMEPAGE OF IITB'
p51
sS'http://moodle.iitb.ac.in/login/index.php'
p52
S'http://moodle.iitb.ac.in/login/index.php'
p53
sS'http://www.iitb.ac.in/alumni/en/content/institutelectures'
p54
S'Institute Lectures | Alumni and Corporate Relations'
p55
sS'http://www.idc.iitb.ac.in/events/seminarparticipation.html'
p56
S'Participation in Seminars, Conferences, etc: Industrial Design Centre at IIT Bombay'
p57
sS'http://www.ese.iitb.ac.in/faq/frequentlyaskedquestions'
p58
S'Frequently Asked Questions | Department of Energy Science and Engineering '
p59
sS'http://www.geos.iitb.ac.in/index.php/en/home'
p60
S'Welcome to the Frontpage'
p61
sS'http://www.aero.iitb.ac.in/home/index.php?option=com_content&task=view&id=29&Itemid=66'
p62
S'Department of Aerospace Engineering'
p63
sS'http://gymkhana.iitb.ac.in/~cultural/achdance.html'
p64
S'IITB Culturals | Dance'
p65
sS'http://www.library.iitb.ac.in/services/remoteaccess/'
p66
S'Central Library IIT Bombay | Remote Access'
p67
sS'http://www.library.iitb.ac.in/printjournals/unioncatalogue/'
p68
S'Central Library IIT Bombay | Union Catalogue'
p69
sS'http://www.hss.iitb.ac.in/home/index.php/people/visitingfaculty'
p70
S'Visiting Faculty'
p71
sS'http://www.aero.iitb.ac.in/home/index.php?option=com_content&task=view&id=115&Itemid=42'
p72
S'Department of Aerospace Engineering'
p73
sS'http://www.iitb.ac.in/alumni/en/event'
p74
S'Events | Alumni and Corporate Relations'
p75
sS'http://www1.iitb.ac.in/newacadhome/cell.jsp'
p76
S'WELCOME TO THE ACADEMICS HOMEPAGE OF IITB'
p77
sS'http://www.iitb.ac.in/en/aboutiitbombay/traveldesk'
p78
S'Travel Desk | IIT Bombay'
p79
sS'http://www.iitb.ac.in/en/careers/faculty/archivejobs'
p80
S'Archived Job Postings for Faculty | IIT Bombay'
p81
sS'http://www.hss.iitb.ac.in/facultymail/src/login.php'
p82
S'http://www.hss.iitb.ac.in/faculty-mail/src/login.php'
p83
sS'http://www.library.iitb.ac.in/feed/'
p84
S'Return of library books'
p85
sS'http://www.iitb.ac.in/newacadhome/AcadCal121310051220121310May.pdf'
p86
S'http://www.iitb.ac.in/newacadhome/AcadCal12131005122012-1310May.pdf'
p87
sS'http://www.library.iitb.ac.in/faqs/'
p88
S'Central Library IIT Bombay | How Do I ..'
p89
sS'http://www.ircc.iitb.ac.in/IRCCWebpage/rnd/LicensingTechnologies.jsp?TechnologySrNo=1'
p90
S'IIT Bombay Technologies for Licensing'
p91
sS'http://www.iitb.ac.in/students/hostels.html'
p92
S'Error | IIT Bombay'
p93
sS'http://www1.iitb.ac.in/WomensCell/data/biswaessay.pdf'
p94
S'http://www1.iitb.ac.in/WomensCell/data/biswa-essay.pdf'
p95
sS'http://www.iitb.ac.in/en/researchhighlight/healingtouchgold'
p96
S'Healing touch of gold | IIT Bombay'
p97
sS'http://www.met.iitb.ac.in/main.html?s=y&sec=section&content=siteArchieves'
p98
S'MEMS IITBombay'
p99
sS'http://www.idc.iitb.ac.in/about/contact.htm'
p100
S' Contact Details: Industrial Design Centre (IDC) IIT Bombay, India '
p101
sS'http://www.iitb.ac.in/newacadhome/rules.jsp'
p102
S'WELCOME TO THE ACADEMICS HOMEPAGE OF IITB'
p103
sS'http://www.met.iitb.ac.in/main.html?s=y&sec=academics&content=courses'
p104
S'MEMS IITBombay'
p105
sS'http://www.civil.iitb.ac.in/help'
p106
S'HELP'
p107
sS'http://www.iitb.ac.in/en/breakingnews/unnatbharatabhiyan'
p108
S'Unnat Bharat Abhiyan | IIT Bombay'
p109
sS'http://www1.iitb.ac.in/otherlinks.html'
p110
S'Indian Institute of Technology, Bombay :: Other Links'
p111
sS'http://www.ese.iitb.ac.in/?q=aboutus/usefullinks'
p112
S' Useful links | Department of Energy Science and Engineering '
p113
sS'http://www.iitb.ac.in/sites/default/files/Internalfacapplication.doc'
p114
S'404 - Page not found | IIT Bombay'
p115
sS'http://www.iitb.ac.in/sites/default/files/reshigh/20140705%2007%3A07/micro_power_generator.jpg'
p116
S'http://www.iitb.ac.in/sites/default/files/reshigh/2014-07-05%2007%3A07/micro_power_generator.jpg'
p117
sS'http://www.iitb.ac.in/en/award/fellowindianacademysciences20150'
p118
S'Fellow of the Indian Academy of Sciences 2015 | IIT Bombay'
p119
sS'http://www.che.iitb.ac.in/online/currentinterest'
p120
S'Quick Links of Current Interest | Chemical Engineering, IIT Bombay'
p121
sS'http://www.ir.iitb.ac.in/?page_id=141'
p122
S'IIT Bombay \xe2\x80\x94 International Relations'
p123
sS'http://www.cse.iitb.ac.in/page222?batch=MTech2'
p124
S'CSE, IIT Bombay'
p125
sS'http://www.cse.iitb.ac.in/page222?batch=MTech3'
p126
S'CSE, IIT Bombay'
p127
sS'http://www.cse.iitb.ac.in/page222?batch=MTech1'
p128
S'CSE, IIT Bombay'
p129
sS'http://www.me.iitb.ac.in/Hindi/'
p130
S'\xe0\xa4\xaf\xe0\xa4\xbe\xe0\xa4\x82\xe0\xa4\xa4\xe0\xa5\x8d\xe0\xa4\xb0\xe0\xa4\xbf\xe0\xa4\x95\xe0\xa5\x80 \xe0\xa4\x85\xe0\xa4\xad\xe0\xa4\xbf\xe0\xa4\xaf\xe0\xa4\xbe\xe0\xa4\x82\xe0\xa4\xa4\xe0\xa5\x8d\xe0\xa4\xb0\xe0\xa4\xbf\xe0\xa4\x95\xe0\xa5\x80'
p131
sS'http://www.iitb.ac.in/alumni/en/content/foundationday'
p132
S'Foundation Day | Alumni and Corporate Relations'
p133
sS'http://www.iitb.ac.in/sites/default/files/event/201502/mahanti1.jpg'
p134
S'http://www.iitb.ac.in/sites/default/files/event/2015-02/mahanti1.jpg'
p135
sS'http://www.iitb.ac.in/en/aboutiitbombay/contactus'
p136
S'Contact Us | IIT Bombay'
p137
sS'http://www1.iitb.ac.in/newacadhome/circular.jsp'
p138
S'WELCOME TO THE ACADEMICS HOMEPAGE OF IITB'
p139
sS'http://www.met.iitb.ac.in/main.html?s=y&sec=research&content=facilities/central'
p140
S'MEMS IITBombay'
p141
sS'http://www1.iitb.ac.in/TinkeresLab/TinkerersLab.htm'
p142
S'Tinkerers'
p143
sS'http://www.met.iitb.ac.in/main.html?s=y&sec=announcements&content=timetableCal'
p144
S'MEMS IITBombay'
p145
sS'http://www.aero.iitb.ac.in/index.php?date=20150401'
p146
S'Department of Aerospace Engineering'
p147
sS'http://www.idc.iitb.ac.in/resources/designthoughts.html'
p148
S'Design Thoughts - IDC Design Research Journal - Industrial Design Centre (IDC) IIT Bombay, India '
p149
sS'http://gymkhana.iitb.ac.in/~sports/'
p150
S'IITB Sports'
p151
sS'http://www1.iitb.ac.in/newacadhome/Convo2014Invitation7July.pdf'
p152
S'http://www1.iitb.ac.in/newacadhome/Convo2014Invitation7July.pdf'
p153
sS'http://www.library.iitb.ac.in/download/booksuggestionform/'
p154
S'Central Library IIT Bombay | Book Suggestion Form'
p155
sS'http://www.geos.iitb.ac.in/index.php/hi'
p156
S'Department of Earth Sciences, IIT Bombay'
p157
sS'http://www.iitb.ac.in/alumni/en/content/aboutacroffice'
p158
S'About ACR Office | Alumni and Corporate Relations'
p159
sS'http://www.che.iitb.ac.in/online/forums/201409165134'
p160
S'Positions Available for Post-Doctoral Opportunities in the Department | Chemical Engineering, IIT Bombay'
p161
sS'http://www.iitb.ac.in/newacadhome/todepts.jsp'
p162
S'WELCOME TO THE ACADEMICS HOMEPAGE OF IITB'
p163
sS'http://www.iitb.ac.in/en/aboutiitbombay/victormenezesconventioncentrevmcc'
p164
S'Victor Menezes Convention Centre (VMCC) | IIT Bombay'
p165
sS'http://www.hss.iitb.ac.in/home/index.php/printableforms/studentforms'
p166
S'Student Forms'
p167
sS'http://www.iitb.ac.in/en/education/admissionday'
p168
S'Admission day | IIT Bombay'
p169
sS'http://www.library.iitb.ac.in/download/'
p170
S'Central Library IIT Bombay | Download'
p171
sS'http://ncpre.iitb.ac.in'
p172
S'NCPRE | Home'
p173
sS'http://www.library.iitb.ac.in/mylibrary/'
p174
S'Central Library IIT Bombay | My Library'
p175
sS'http://www.iitb.ac.in/~crnts/People.html'
p176
S'CRNTS'
p177
sS'http://www.iitb.ac.in/en/faculty/informationcurrentfaculty'
p178
S'Information for Current Faculty | IIT Bombay'
p179
sS'http://www2.iitb.ac.in/academics/en/admissions'
p180
S'404 Not Found'
p181
sS'http://www.iitb.ac.in/newacadhome/AcadCa2014155Dec.pdf'
p182
S'http://www.iitb.ac.in/newacadhome/AcadCa2014-155Dec.pdf'
p183
sS'http://www.geos.iitb.ac.in/index.php/en/about'
p184
S'About'
p185
sS'http://www.iitb.ac.in/newacadhome/acadCal/AcademicCalendar0708.pdf'
p186
S'http://www.iitb.ac.in/newacadhome/acadCal/AcademicCalendar07-08.pdf'
p187
sS'http://www.bio.iitb.ac.in/academics/mscprogram'
p188
S'MSc Program \xc2\xab  Biosciences and Bioengineering'
p189
sS'http://www.cse.iitb.ac.in/~swlab/contacts.html'
p190
S'Software Lab'
p191
sS'http://www.aero.iitb.ac.in/home/index.php?option=com_content&task=view&id=48&Itemid=60'
p192
S'Department of Aerospace Engineering'
p193
sS'http://www.met.iitb.ac.in/main.html?s=y&sec=resources&content=materialsLibrary'
p194
S'MEMS IITBombay'
p195
sS'http://www.che.iitb.ac.in/online/node/5082'
p196
S'In Memorium: Prof Suresh R Patwardhan | Chemical Engineering, IIT Bombay'
p197
sS'http://placements.iitb.ac.in/whyrecruit/recruiters_speak.html'
p198
S'Placements, IIT Bombay'
p199
sS'http://www.idc.iitb.ac.in/admissions/internationalstudents.html'
p200
S'Foreign Student Admission: Industrial Design Centre at IIT Bombay'
p201
sS'http://www2.iitb.ac.in/academics/mphil'
p202
S'404 Not Found'
p203
sS'http://www.ee.iitb.ac.in/web/people/students'
p204
S'Department of Electrical Engineering, Indian Institute of Technology Bombay '
p205
sS'http://www.geos.iitb.ac.in/index.php/en/facilities'
p206
S'Facilities'
p207
sS'http://www.library.iitb.ac.in/wpcontent/uploads/2014/11/Listofjournals.pdf'
p208
S'http://www.library.iitb.ac.in/wp-content/uploads/2014/11/List-of-journals.pdf'
p209
sS'http://www.iitb.ac.in/newacadhome/D42014.pdf'
p210
S'http://www.iitb.ac.in/newacadhome/D4-2014.pdf'
p211
sS'http://www1.iitb.ac.in/newacadhome/solar.jsp'
p212
S'solar system'
p213
sS'http://www.ee.iitb.ac.in/web/industrial_relations/recruitment'
p214
S'Department of Electrical Engineering, Indian Institute of Technology Bombay '
p215
sS'http://www1.iitb.ac.in/acad/'
p216
S'Indian Institute of Technology, Bombay :: Academics Home'
p217
sS'http://www.iitb.ac.in/sites/default/files/news/201412/ThomsonAwd.jpg'
p218
S'http://www.iitb.ac.in/sites/default/files/news/2014-12/ThomsonAwd.jpg'
p219
sS'http://www.met.iitb.ac.in/main.html?s=y&sec=activities&content=mma/mmaGallery2010'
p220
S'MEMS IITBombay'
p221
sS'http://www.met.iitb.ac.in/main.html?s=y&sec=people&content=people'
p222
S'MEMS IITBombay'
p223
sS'http://www1.iitb.ac.in/newacadhome/MTechRules20154Feb.pdf'
p224
S'http://www1.iitb.ac.in/newacadhome/MTechRules20154Feb.pdf'
p225
sS'http://www.iitb.ac.in/sites/default/files/RinB.jpg'
p226
S'http://www.iitb.ac.in/sites/default/files/RinB.jpg'
p227
sS'http://www.iitb.ac.in/newacadhome/Springsemestertimetable1415512015.pdf'
p228
S'http://www.iitb.ac.in/newacadhome/Springsemestertimetable1415512015.pdf'
p229
sS'http://www.iitb.ac.in/sites/default/files/styles/gallery_item/public/Bose%20in%20Jeep%20B%26W.jpg'
p230
S'http://www.iitb.ac.in/sites/default/files/styles/gallery_item/public/Bose%20in%20Jeep%20B%26W.jpg'
p231
sS'http://www.me.iitb.ac.in/me/admissions.php'
p232
S'Mechanical Engineering'
p233
sS'http://www.hss.iitb.ac.in/ilc/'
p234
S'New Page 2'
p235
sS'http://www1.iitb.ac.in/newacadhome/scholar.jsp'
p236
S'WELCOME TO THE ACADEMICS HOMEPAGE OF IITB'
p237
sS'http://www.iitb.ac.in/en/careers/faculty/activejobs'
p238
S'Faculty Job Vacancy List | IIT Bombay'
p239
sS'http://www.cdeep.iitb.ac.in/OAS2014'
p240
S'Ocean and Atmospheric sciences current trends'
p241
sS'http://www.cse.iitb.ac.in/page46?staffType=administrative'
p242
S'CSE, IIT Bombay'
p243
sS'http://www.iitb.ac.in/en/education/mtech'
p244
S'M.Tech | IIT Bombay'
p245
sS'http://www.iitb.ac.in/alumni/en/content/hats'
p246
S'HATS | Alumni and Corporate Relations'
p247
sS'http://www.iitb.ac.in/sites/default/files/news/201412/IMG_2206.JPG'
p248
S'http://www.iitb.ac.in/sites/default/files/news/2014-12/IMG_2206.JPG'
p249
sS'http://www.met.iitb.ac.in/main.html?s=y&sec=research&content=research'
p250
S'MEMS IITBombay'
p251
sS'http://www.ese.iitb.ac.in/?q=aboutus/annualreportapril2006march2007energysystemsengineering'
p252
S'Annual Report April 2006 to March 2007 Energy Systems Engineering | Department of Energy Science and Engineering '
p253
sS'http://www.cse.iitb.ac.in/~ttc/'
p254
S' Time Table '
p255
sS'http://www.met.iitb.ac.in/main.html?s=y&sec=research&content=industrial'
p256
S'MEMS IITBombay'
p257
sS'http://www.iitb.ac.in/sites/default/files/sudarshansmall.jpg'
p258
S'http://www.iitb.ac.in/sites/default/files/sudarshan-small.jpg'
p259
sS'http://placements.iitb.ac.in/people.html'
p260
S'Placements, IIT Bombay'
p261
sS'http://www.me.iitb.ac.in/'
p262
S'Mechanical Engineering'
p263
sS'http://www.ir.iitb.ac.in/?page_id=374'
p264
S'  Declaration Form | IIT Bombay \xe2\x80\x94 International Relations'
p265
sS'http://www.iitb.ac.in/sites/default/files/TeamPRMS.pdf'
p266
S'http://www.iitb.ac.in/sites/default/files/TeamPRMS.pdf'
p267
sS'http://placements.iitb.ac.in/whyrecruit/news.html'
p268
S'Placements, IIT Bombay'
p269
sS'http://www.ese.iitb.ac.in/ESE_old/aboutus/overview_DESE.pdf'
p270
S'http://www.ese.iitb.ac.in/ESE_old/aboutus/overview_DESE.pdf'
p271
sS'http://www1.iitb.ac.in/EstateOffice/'
p272
S''
sS'http://www.iitb.ac.in/en/aboutiitbombay/iitbombaycampus'
p273
S'IIT Bombay Campus | IIT Bombay'
p274
sS'http://www1.iitb.ac.in/deanpl/people1.html'
p275
S'Untitled Document'
p276
sS'http://www.idc.iitb.ac.in/events/academiccalender.html'
p277
S'Academic Calender: Industrial Design Centre at IIT Bombay'
p278
sS'http://www.iitb.ac.in/newacadhome/toTraining.jsp'
p279
S'WELCOME TO THE ACADEMICS HOMEPAGE OF IITB'
p280
sS'http://www.math.iitb.ac.in/events/events.html'
p281
S'Department of Mathematics, IIT Bombay'
p282
sS'http://www1.iitb.ac.in/students/tansa.html'
p283
S'Hostels - IIT Bombay'
p284
sS'http://www.iitb.ac.in/sites/default/files/rmurugavel.JPG'
p285
S'http://www.iitb.ac.in/sites/default/files/rmurugavel.JPG'
p286
sS'http://www.ieor.iitb.ac.in/'
p287
S'IEOR @IIT Bombay'
p288
sS'http://www.cse.iitb.ac.in/page33'
p289
S'CSE, IIT Bombay'
p290
sS'http://www.cse.iitb.ac.in/page30'
p291
S'CSE, IIT Bombay'
p292
sS'http://www.cse.iitb.ac.in/page31'
p293
S'CSE, IIT Bombay'
p294
sS'http://www.idc.iitb.ac.in/resources/publications.html'
p295
S'Publications: Industrial Design Centre (IDC) IIT Bombay, India '
p296
sS'http://www.cse.iitb.ac.in/page37'
p297
S'CSE, IIT Bombay'
p298
sS'http://www.cse.iitb.ac.in/page34'
p299
S'CSE, IIT Bombay'
p300
sS'http://www.cse.iitb.ac.in/page35'
p301
S'CSE, IIT Bombay'
p302
sS'http://www.ir.iitb.ac.in/hindi'
p303
S'\xe0\xa4\x85\xe0\xa4\x82\xe0\xa4\xa4\xe0\xa4\xb0\xe0\xa4\xb0\xe0\xa4\xbe\xe0\xa4\xb7\xe0\xa5\x8d\xe0\xa4\x9f\xe0\xa5\x8d\xe0\xa4\xb0\xe0\xa5\x80\xe0\xa4\xaf \xe0\xa4\xb8\xe0\xa4\x82\xe0\xa4\xac\xe0\xa4\x82\xe0\xa4\xa7 \xe0\xa4\x95\xe0\xa4\xbe\xe0\xa4\xb0\xe0\xa5\x8d\xe0\xa4\xaf\xe0\xa4\xbe\xe0\xa4\xb2\xe0\xa4\xaf | '
p304
sS'http://gymkhana.iitb.ac.in/~cultural/calendar.html'
p305
S'IITB Culturals | Calendar'
p306
sS'http://www1.iitb.ac.in/jobs.html'
p307
S'Indian Institute of Technology, Bombay :: Schools / IDPs'
p308
sS'http://www.iitb.ac.in/alumni/en'
p309
S'Alumni and Corporate Relations | Alumni and Corporate Relations'
p310
sS'http://gpo.iitb.ac.in/src/compose.php?send_to=pritapant%40iitb.ac.in'
p311
S'IIT Bombay (wm2new) WEBMAIL - Your session has expired, but will be resumed after logging in again.'
p312
sS'http://www.iitb.ac.in/sites/default/files/reshigh/201501/Femur2.png'
p313
S'http://www.iitb.ac.in/sites/default/files/reshigh/2015-01/Femur2.png'
p314
sS'http://www.iitb.ac.in/alumni/en/givingback'
p315
S'Giving Back | Alumni and Corporate Relations'
p316
sS'http://www.che.iitb.ac.in/online/education/phd/phdadmissioninformation'
p317
S'PhD Admission Information | Chemical Engineering, IIT Bombay'
p318
sS'http://www.cse.iitb.ac.in/~gauravchauhan'
p319
S'404 Not Found'
p320
sS'https://portal.iitb.ac.in/index.jsp'
p321
S'404 Not Found'
p322
sS'http://www.geos.iitb.ac.in/images/stories/dransariabstract.pdf'
p323
S'http://www.geos.iitb.ac.in/images/stories/dransariabstract.pdf'
p324
sS'http://www.aero.iitb.ac.in/home/index.php?option=com_jcalpro&Itemid=40&extmode=day&date=20150324'
p325
S'Department of Aerospace Engineering'
p326
sS'http://www.aero.iitb.ac.in/home/index.php?option=com_jcalpro&Itemid=40&extmode=day&date=20150325'
p327
S'Department of Aerospace Engineering'
p328
sS'http://www.me.iitb.ac.in/me/contactlcc.html'
p329
S'Contact Information for Lecture Complex'
p330
sS'http://www.aero.iitb.ac.in/home/index.php?option=com_jcalpro&Itemid=40&extmode=day&date=20150327'
p331
S'Department of Aerospace Engineering'
p332
sS'http://www.aero.iitb.ac.in/home/index.php?option=com_jcalpro&Itemid=40&extmode=day&date=20150320'
p333
S'Department of Aerospace Engineering'
p334
sS'http://gymkhana.iitb.ac.in/~smp/'
p335
S'IITB - Student Mentor Programme'
p336
sS'http://www.aero.iitb.ac.in/home/index.php?option=com_jcalpro&Itemid=40&extmode=day&date=20150322'
p337
S'Department of Aerospace Engineering'
p338
sS'http://www.aero.iitb.ac.in/home/index.php?option=com_jcalpro&Itemid=40&extmode=day&date=20150323'
p339
S'Department of Aerospace Engineering'
p340
sS'http://gymkhana.iitb.ac.in/~cultural/cultopediasa.html'
p341
S'IITB Culturals | Cultopedia'
p342
sS'http://www.aero.iitb.ac.in/home/index.php?option=com_jcalpro&Itemid=40&extmode=day&date=20150328'
p343
S'Department of Aerospace Engineering'
p344
sS'http://www.aero.iitb.ac.in/hindi/index.php'
p345
S'\xc5\x95\xc2\xa4\xc4\xbe\xc5\x95\xc2\xa4\xc5\xbe\xc5\x95\xc2\xa4\xc5\xbb\xc5\x95\xc4\xbd\xc2\x81\xc5\x95\xc2\xa4\xc2\x86\xc5\x95\xc2\xa4\xc2\x95\xc5\x95\xc2\xa4\xc5\xbe\xc5\x95\xc2\xa4\xc5\x9b \xc5\x95\xc2\xa4\xc2\x85\xc5\x95\xc2\xa4\xc2\xad\xc5\x95\xc2\xa4\xc5\xbc\xc5\x95\xc2\xa4\xc5\xbb\xc5\x95\xc2\xa4\xc5\xbe\xc5\x95\xc2\xa4\xc2\x82\xc5\x95\xc2\xa4\xc2\xa4\xc5\x95\xc4\xbd\xc2\x8d\xc5\x95\xc2\xa4\xc2\xb0\xc5\x95\xc2\xa4\xc5\xbc\xc5\x95\xc2\xa4\xc2\x95\xc5\x95\xc4\xbd\xc2\x80 \xc5\x95\xc2\xa4\xc4\xbe\xc5\x95\xc2\xa4\xc5\xbc\xc5\x95\xc2\xa4\xc2\xad\xc5\x95\xc2\xa4\xc5\xbe\xc5\x95\xc2\xa4\xc2\x97 - Home'
p346
sS'http://www.iitb.ac.in/newacadhome/Informationforfacultybatch081201213.pdf'
p347
S'http://www.iitb.ac.in/newacadhome/Informationforfacultybatch08-12012-13.pdf'
p348
sS'http://www.met.iitb.ac.in/main.html?s=y&sec=people&content=awardsSchol'
p349
S'MEMS IITBombay'
p350
sS'http://www.iitb.ac.in/en/aboutiitbombay/sitefeedback'
p351
S'Site Feedback | IIT Bombay'
p352
sS'http://www.hss.iitb.ac.in/home/index.php/alumni/registration'
p353
S'Registration'
p354
sS'http://www.iitb.ac.in/en/node'
p355
S'IIT Bombay | IIT Bombay'
p356
sS'http://www.iitb.ac.in/en/externalrelations/consultancyandresearchpartnership'
p357
S'Consultancy and Research Partnership | IIT Bombay'
p358
sS'http://www.library.iitb.ac.in/printjournals/'
p359
S'Central Library IIT Bombay | Print Journals'
p360
sS'http://www.iitb.ac.in/newacadhome/sitemap.jsp'
p361
S'Site Map'
p362
sS'http://www.ee.iitb.ac.in/web/schedule/seminar/Piezoelectric_Actuator_Renaissance_03_2015'
p363
S'Department of Electrical Engineering, Indian Institute of Technology Bombay '
p364
sS'http://www.iitb.ac.in/en/education/undergraduateapplicants'
p365
S'Undergraduate Applicants | IIT Bombay'
p366
sS'http://www.iitb.ac.in/sites/default/files/reshigh/20140709%2009%3A31/actinmicrotubule.jpg'
p367
S'http://www.iitb.ac.in/sites/default/files/reshigh/2014-07-09%2009%3A31/actin-microtubule.jpg'
p368
sS'http://www.iitb.ac.in/alumni/en/content/fundutilizationreport'
p369
S'Fund Utilization Report | Alumni and Corporate Relations'
p370
sS'http://www.ese.iitb.ac.in/event'
p371
S'Events | Department of Energy Science and Engineering '
p372
sS'http://www.library.iitb.ac.in/aboutus/collection/'
p373
S'Central Library IIT Bombay | Collection'
p374
sS'http://www.met.iitb.ac.in/main.html?sec=announcements&content=internships'
p375
S'MEMS IITBombay'
p376
sS'http://www.me.iitb.ac.in/~vandurkarv'
p377
S'Vasant Vandurkar'
p378
sS'http://www.ese.iitb.ac.in/?q=academics/dualdegreebtechmtechprogramme'
p379
S'Dual Degree (B.Tech.-M.Tech.) Programme | Department of Energy Science and Engineering '
p380
sS'http://www.aero.iitb.ac.in/home/index.php?option=com_jcalpro&Itemid=40&extmode=week&date=20150307'
p381
S'Department of Aerospace Engineering'
p382
sS'http://www.cse.iitb.ac.in/deptwiki/doku.php'
p383
S'start [IITB CSE Dept Wiki]'
p384
sS'http://www.ese.iitb.ac.in/?q=academics/mscphdprogramme'
p385
S'MSc - Phd Programme | Department of Energy Science and Engineering '
p386
sS'http://www.ir.iitb.ac.in/wpcontent/uploads/FAQs1.pdf'
p387
S'http://www.ir.iitb.ac.in/wp-content/uploads/FAQs1.pdf'
p388
sS'http://www.iitb.ac.in/alumni/en/content/studentalumnimeet'
p389
S'Student Alumni Meet | Alumni and Corporate Relations'
p390
sS'http://www.iitb.ac.in/acad/Coursereg.pdf'
p391
S'http://www.iitb.ac.in/acad/Coursereg.pdf'
p392
sS'http://www1.iitb.ac.in/deanpl/'
p393
S'Untitled Document'
p394
sS'http://www.met.iitb.ac.in/main.html?s=y&sec=people&content=dstinspirefaculty/pk'
p395
S'MEMS IITBombay'
p396
sS'http://www.civil.iitb.ac.in/hindi/index.phtml'
p397
S'\xe0\xa4\xb8\xe0\xa4\xbf\xe0\xa4\xb5\xe0\xa4\xbf\xe0\xa4\xb2 \xe0\xa4\x85\xe0\xa4\xad\xe0\xa4\xbf\xe0\xa4\xaf\xe0\xa4\xbe\xe0\xa4\x82\xe0\xa4\xa4\xe0\xa5\x8d\xe0\xa4\xb0\xe0\xa4\xbf\xe0\xa4\x95\xe0\xa5\x80 \xe0\xa4\xb5\xe0\xa4\xbf\xe0\xa4\xad\xe0\xa4\xbe\xe0\xa4\x97,\xe0\xa4\xad\xe0\xa4\xbe.\xe0\xa4\xaa\xe0\xa5\x8d\xe0\xa4\xb0\xe0\xa5\x8c.\xe0\xa4\xb8\xe0\xa4\x82. \xe0\xa4\xae\xe0\xa5\x81\xe0\xa4\x82\xe0\xa4\xac\xe0\xa4\x88'
p398
sS'http://www.bio.iitb.ac.in/people/students/mtechii'
p399
S'MTech II \xc2\xab  Biosciences and Bioengineering'
p400
sS'http://www.iitb.ac.in/alumni/en/content/alumniday'
p401
S'Alumni Day | Alumni and Corporate Relations'
p402
sS'http://www.ir.iitb.ac.in/wpcontent/uploads/App.forbonafidecert.1.pdf'
p403
S'http://www.ir.iitb.ac.in/wp-content/uploads/App.-for-bonafide-cert.1.pdf'
p404
sS'http://www.library.iitb.ac.in/aboutus/timings/'
p405
S'Central Library IIT Bombay | Timings'
p406
sS'http://www.ese.iitb.ac.in/icaer2013/booking'
p407
S'International Conference on Advances in Energy Research | ICAER 2013, IIT Bombay'
p408
sS'http://www.iitb.ac.in/sites/default/files/news/201409/QSWorldUniversityRankingsreleased_0.jpg'
p409
S'http://www.iitb.ac.in/sites/default/files/news/2014-09/QS-World-University-Rankings-released_0.jpg'
p410
sS'http://www.library.iitb.ac.in/services/photocopying/'
p411
S'Central Library IIT Bombay | Photocopying'
p412
sS'http://www.iitb.ac.in/en'
p413
S'IIT Bombay | IIT Bombay'
p414
sS'http://www.ee.iitb.ac.in/web/information/students'
p415
S'Department of Electrical Engineering, Indian Institute of Technology Bombay '
p416
sS'http://www.iitb.ac.in/sites/default/files/news/201501/PC1_0.jpg'
p417
S'http://www.iitb.ac.in/sites/default/files/news/2015-01/PC-1_0.jpg'
p418
sS'http://www.ese.iitb.ac.in/'
p419
S'Department of Energy Science and Engineering '
p420
sS'http://www2.iitb.ac.in/academics/en/scholarship'
p421
S'404 Not Found'
p422
sS'http://www.iitb.ac.in/en/gallery/cardcomputing'
p423
S'Card Computing | IIT Bombay'
p424
sS'http://www.iitb.ac.in/newacadhome/AcadCal20131426April.pdf'
p425
S'http://www.iitb.ac.in/newacadhome/AcadCal2013-1426April.pdf'
p426
sS'http://www.che.iitb.ac.in/online/about/contactus'
p427
S'Contact Us | Chemical Engineering, IIT Bombay'
p428
sS'http://www1.iitb.ac.in/newacadhome/rules/Common_structuremscphd.pdf'
p429
S'http://www1.iitb.ac.in/newacadhome/rules/Common_structuremscphd.pdf'
p430
sS'http://placements.iitb.ac.in/blog'
p431
S'http://placements.iitb.ac.in/blog'
p432
sS'http://www.met.iitb.ac.in/main.html?s=y&sec=activities&content=dhatuki/dhatukiEcopy'
p433
S'MEMS IITBombay'
p434
sS'http://www.iitb.ac.in/acad/'
p435
S'Indian Institute of Technology, Bombay :: Academics Home'
p436
sS'http://www.met.iitb.ac.in/main.html?s=y&sec=resources&content=deptLibrary'
p437
S'MEMS IITBombay'
p438
sS'http://www.iitb.ac.in/en/calendarnodefieldeventdate/day'
p439
S'| IIT Bombay'
p440
sS'http://www.bio.iitb.ac.in/'
p441
S' Biosciences and Bioengineering'
p442
sS'http://www.iitb.ac.in/sites/default/files/styles/gallery_item/public/MainBldg%20grey.jpg'
p443
S'http://www.iitb.ac.in/sites/default/files/styles/gallery_item/public/MainBldg%20grey.jpg'
p444
sS'http://www1.iitb.ac.in/departments.html'
p445
S'Indian Institute of Technology, Bombay :: Depatments'
p446
sS'https://portal.iitb.ac.in/vrp'
p447
S'Vendor Registration Portal - Home Page'
p448
sS'http://www.library.iitb.ac.in/blog/newarrivalsdisplaybookslistfrom09022015to15022015/'
p449
S'Central Library IIT Bombay | New Arrivals: Display Books List from 09/02/2015 To 15/02/2015'
p450
sS'http://www.iitb.ac.in/en/researchhighlight/transparentuvmasks'
p451
S'Transparent UV Masks | IIT Bombay'
p452
sS'http://www.iitb.ac.in/en/aboutiitbombay/telephonedirectory'
p453
S'Telephone Directory | IIT Bombay'
p454
sS'http://www.iitb.ac.in/alumni/en/Chooseyourcause'
p455
S'Causes and Impact | Alumni and Corporate Relations'
p456
sS'http://www.met.iitb.ac.in/main.html?s=y&sec=aboutUs&content=aboutUs'
p457
S'MEMS IITBombay'
p458
sS'http://www1.iitb.ac.in/newacadhome/BTech2011201211Jan.pdf'
p459
S'http://www1.iitb.ac.in/newacadhome/BTech2011-201211Jan.pdf'
p460
sS'http://www1.iitb.ac.in/about/ChairProfessor.pdf'
p461
S'http://www1.iitb.ac.in/about/ChairProfessor.pdf'
p462
sS'http://www.iitb.ac.in/en/award/jcbosefellowship2015'
p463
S'J.C. Bose Fellowship 2015 | IIT Bombay'
p464
sS'http://internal.iitb.ac.in/imcwork'
p465
S'IITB Internal Links'
p466
sS'http://www.hss.iitb.ac.in/home/index.php/events/conferencesaseminars'
p467
S'testing'
p468
sS'http://www.idc.iitb.ac.in/about/partnership.html'
p469
S'Partnership: Industrial Design Centre (IDC) IIT Bombay, India '
p470
sS'http://gymkhana.iitb.ac.in/~sports/index.php?r=registrations'
p471
S'Registrations | IITB Sports'
p472
sS'http://www.iitb.ac.in/newacadhome/rules/Dissertation17june0910.pdf'
p473
S'http://www.iitb.ac.in/newacadhome/rules/Dissertation17june09-10.pdf'
p474
sS'http://www.iitb.ac.in/en/education'
p475
S'Education | IIT Bombay'
p476
sS'http://www.cdeep.iitb.ac.in/events.php'
p477
S'CDEEP - Centre For Distance Engineering Education Programme'
p478
sS'http://www1.iitb.ac.in/deanpl/construction.html'
p479
S'Untitled Document'
p480
sS'http://gymkhana.iitb.ac.in/~cultural/infratheatre.html'
p481
S'IITB Culturals | Theatre Room'
p482
sS'http://www.iitb.ac.in/en/externalrelations'
p483
S'External Relations | IIT Bombay'
p484
sS'http://www.math.iitb.ac.in/academic/phd.html'
p485
S'Information for students shortlisted for Ph.D. entrance test'
p486
sS'http://www1.iitb.ac.in/students/hostel4.html'
p487
S'Hostels - IIT Bombay'
p488
sS'http://www.iitb.ac.in/en/aboutiitbombay/gettingtoiitbombay'
p489
S'Getting to IIT Bombay | IIT Bombay'
p490
sS'http://www.iitb.ac.in/en/students/informationcurrentstudents'
p491
S'Information for Current Students | IIT Bombay'
p492
sS'http://placements.iitb.ac.in/'
p493
S'Placements, IIT Bombay'
p494
sS'http://www.cse.iitb.ac.in/page20'
p495
S'CSE, IIT Bombay'
p496
sS'http://www.iitb.ac.in/en/researchanddevelopment/entrepreneurship'
p497
S'Entrepreneurship | IIT Bombay'
p498
sS'http://www.phy.iitb.ac.in/doku/doku.php/Research%20Home?do=login'
p499
S'http://www.phy.iitb.ac.in/doku/doku.php/Research%20Home?do=login'
p500
sS'http://www.iitb.ac.in/newacadhome/scholar.jsp'
p501
S'WELCOME TO THE ACADEMICS HOMEPAGE OF IITB'
p502
sS'http://www.idc.iitb.ac.in/academics/interactiondesign.html'
p503
S'Interaction Design Program: Industrial Design Centre (IDC) IIT Bombay, India '
p504
sS'women.pdf'
p505
S'women.pdf'
p506
sS'http://www2.iitb.ac.in/academics/mmgt'
p507
S'404 Not Found'
p508
sS'http://epsilon.me.iitb.ac.in'
p509
S'Mechanical Engg. Dept. IIT Bombay - Login'
p510
sS'http://www.hss.iitb.ac.in/library.php'
p511
S'HSS Departmental Library'
p512
sS'http://www.ese.iitb.ac.in/?q=research/research'
p513
S'Page not found | Department of Energy Science and Engineering '
p514
sS'http://www.iitb.ac.in/sites/default/files/reshigh/20140705%2007%3A08/IFAMProjPicture.jpg'
p515
S'http://www.iitb.ac.in/sites/default/files/reshigh/2014-07-05%2007%3A08/IFAM-ProjPicture.jpg'
p516
sS'http://placements.iitb.ac.in/contact/team.html'
p517
S'Placements, IIT Bombay'
p518
sS'http://www.phy.iitb.ac.in:8080/'
p519
S'http://www.phy.iitb.ac.in:8080/'
p520
sS'http://www.me.iitb.ac.in/~fmfp/'
p521
S'New Page'
p522
sS'http://www.cse.iitb.ac.in/page176'
p523
S'CSE, IIT Bombay'
p524
sS'http://www.ee.iitb.ac.in/web/academics/courses'
p525
S'Department of Electrical Engineering, Indian Institute of Technology Bombay '
p526
sS'http://www.iitb.ac.in/newacadhome/rules/rules_overview_ug2007.pdf'
p527
S'http://www.iitb.ac.in/newacadhome/rules/rules_overview_ug2007.pdf'
p528
sS'http://www.iitb.ac.in/en/gallery/firstconvocation1962'
p529
S'First Convocation 1962 | IIT Bombay'
p530
sS'http://www.iitb.ac.in/en/faculty/informationprospectivefaculty'
p531
S'Information for Prospective Faculty | IIT Bombay'
p532
sS'http://www.iitb.ac.in/en/breakingnews/iitbranks222worldno1india'
p533
S'IITB ranks at 222 in the World, No.1 in India | IIT Bombay'
p534
sS'http://www.ese.iitb.ac.in/?q=academics/phdese'
p535
S'Ph.D @ ESE | Department of Energy Science and Engineering '
p536
sS'http://www.ee.iitb.ac.in/web/schedule/seminar/GraphBased_SemiSupervised_Learning_Methods_03_2015'
p537
S'Department of Electrical Engineering, Indian Institute of Technology Bombay '
p538
sS'http://gymkhana.iitb.ac.in/~sports/index.php?r=sports'
p539
S'IITB Sports'
p540
sS'http://www.ese.iitb.ac.in/events'
p541
S'Events Page | Department of Energy Science and Engineering '
p542
sS'http://varta.iitb.ac.in'
p543
S'CC.IITB News Service - Login '
p544
sS'http://www.bio.iitb.ac.in/academics/phdprogram'
p545
S'PhD Program \xc2\xab  Biosciences and Bioengineering'
p546
sS'http://www.ese.iitb.ac.in/?q=faculty'
p547
S'Department of Energy Science and Engineering '
p548
sS'http://www.me.iitb.ac.in'
p549
S'Mechanical Engineering'
p550
sS'http://www1.iitb.ac.in/'
p551
S'Indian Institute of Technology Bombay'
p552
sS'http://www.met.iitb.ac.in/main.html?sec=announcements&content=events'
p553
S'MEMS IITBombay'
p554
sS'http://www.iitb.ac.in/sites/default/files/styles/gallery_item/public/05%20%20RDB%20%2B%20Asha.JPG'
p555
S'http://www.iitb.ac.in/sites/default/files/styles/gallery_item/public/05%20-%20RDB%20%2B%20Asha.JPG'
p556
sS'http://www.iitb.ac.in/en/tender/j641415'
p557
S'High Temperature and High Pressure Furnace | IIT Bombay'
p558
sS'http://www.iitb.ac.in/job/i5020132014'
p559
S'Faculty Rolling Advertisement | IIT Bombay'
p560
sS'http://www1.iitb.ac.in/facilities.html'
p561
S'Indian Institute of Technology, Bombay :: Facilities'
p562
sS'http://www.ee.iitb.ac.in/web/schedule/event/2015_Twenty_First_National_Conference_on_Communications_NCC_20150227'
p563
S'Department of Electrical Engineering, Indian Institute of Technology Bombay '
p564
sS'http://www.bio.iitb.ac.in/people/faculty'
p565
S'Faculty \xc2\xab  Biosciences and Bioengineering'
p566
sS'http://www.library.iitb.ac.in/wpcontent/uploads/2014/05/Book_Lost_Declaration.pdf'
p567
S'http://www.library.iitb.ac.in/wp-content/uploads/2014/05/Book_Lost_Declaration.pdf'
p568
sS'http://www2.iitb.ac.in/academics/scholarship'
p569
S'404 Not Found'
p570
sS'http://www.ee.iitb.ac.in/web/information/announcements'
p571
S'Department of Electrical Engineering, Indian Institute of Technology Bombay '
p572
sS'http://www2.iitb.ac.in/academics/en/msc2year'
p573
S'404 Not Found'
p574
sS'http://www1.iitb.ac.in/Shunya/Shunya.html'
p575
S'S'
sS'http://www.che.iitb.ac.in/online/activitiesconducteddepartment'
p576
S'Activities Conducted by the Department | Chemical Engineering, IIT Bombay'
p577
sS'http://www.iitb.ac.in/alumni/'
p578
S'Alumni and Corporate Relations | Alumni and Corporate Relations'
p579
sS'http://www.geos.iitb.ac.in/index.php/en/softwares'
p580
S'Softwares'
p581
sS'http://www.aero.iitb.ac.in/home/index.php?option=com_content&task=view&id=49&Itemid=62'
p582
S'Department of Aerospace Engineering'
p583
sS'http://www.iitb.ac.in/hindi/Acadmic/index.html'
p584
S'\xe0\xa4\xad\xe0\xa4\xbe\xe0\xa4\xb0\xe0\xa4\xa4\xe0\xa5\x80\xe0\xa4\xaf \xe0\xa4\xaa\xe0\xa5\x8d\xe0\xa4\xb0\xe0\xa5\x8c\xe0\xa4\xa6\xe0\xa5\x8d\xe0\xa4\xaf\xe0\xa5\x8b\xe0\xa4\x97\xe0\xa4\xbf\xe0\xa4\x95\xe0\xa5\x80 \xe0\xa4\xb8\xe0\xa4\x82\xe0\xa4\xb8\xe0\xa5\x8d\xe0\xa4\xa5\xe0\xa4\xbe\xe0\xa4\xa8 \xe0\xa4\xae\xe0\xa5\x81\xe0\xa4\x82\xe0\xa4\xac\xe0\xa4\x88  :: \xe0\xa4\xb6\xe0\xa5\x88\xe0\xa4\x95\xe0\xa5\x8d\xe0\xa4\xb7\xe0\xa4\xbf\xe0\xa4\x95 \xe0\xa4\xb9\xe0\xa5\x8b\xe0\xa4\xae '
p585
sS'http://www.library.iitb.ac.in/sd/books.php'
p586
S'Library on Web-New Arrivals'
p587
sS'http://gpo.iitb.ac.in/src/compose.php?send_to=madhu%40che.iitb.ac.in'
p588
S'IIT Bombay (wm2new) WEBMAIL - Your session has expired, but will be resumed after logging in again.'
p589
sS'http://www.aero.iitb.ac.in/home/index.php?option=com_jcalpro&Itemid=40&extmode=day&date=20150331'
p590
S'Department of Aerospace Engineering'
p591
sS'http://www.aero.iitb.ac.in/home/index.php?option=com_jcalpro&Itemid=40&extmode=day&date=20150330'
p592
S'Department of Aerospace Engineering'
p593
sS'http://www.ese.iitb.ac.in/?q=aboutus/downloadsection'
p594
S'Download Section | Department of Energy Science and Engineering '
p595
sS'http://www.idc.iitb.ac.in/academics/industrialdesign.html'
p596
S' Industrial - Mobility and Vehicle Design: Industrial Design Centre (IDC) IIT Bombay, India '
p597
sS'http://www.aero.iitb.ac.in/home/index.php?option=com_content&task=view&id=16&Itemid=24'
p598
S'Department of Aerospace Engineering'
p599
sS'http://www.ir.iitb.ac.in/wpcontent/uploads/Edit_fullprogwhileapplying3.pdf'
p600
S'http://www.ir.iitb.ac.in/wp-content/uploads/Edit_full-prog-while-applying3.pdf'
p601
sS'http://www1.iitb.ac.in/newacadhome/IIfRGrades20143Jan.pdf'
p602
S'http://www1.iitb.ac.in/newacadhome/IIfRGrades20143Jan.pdf'
p603
sS'http://www.library.iitb.ac.in/eresources/openaccessresource/'
p604
S'Central Library IIT Bombay | Open Access Resource'
p605
sS'http://www.iitb.ac.in/en/researchdomain/informationandcommunicationtechnology'
p606
S'Information and Communication Technology | IIT Bombay'
p607
sS'http://placements.iitb.ac.in/whyrecruit/our_recruiters.html'
p608
S'Placements, IIT Bombay'
p609
sS'http://www.library.iitb.ac.in/eresources/databases/'
p610
S'Central Library IIT Bombay | Databases'
p611
sS'http://www.iitb.ac.in/en/award/jcbosefellowship20150'
p612
S'J.C. Bose Fellowship 2015 | IIT Bombay'
p613
sS'http://www.iitb.ac.in/sites/default/files/styles/gallery_item/public/IITB%20First%20Convocation.jpg'
p614
S'http://www.iitb.ac.in/sites/default/files/styles/gallery_item/public/IITB%20First%20Convocation.jpg'
p615
sS'http://www.hss.iitb.ac.in/home/index.php/component/banners/click/11'
p616
S'Dept of Humanities &amp; Social Sciences'
p617
sS'http://www.hss.iitb.ac.in/home/index.php/component/banners/click/10'
p618
S'Dept of Humanities &amp; Social Sciences'
p619
sS'http://www.ee.iitb.ac.in/web/academics/awards'
p620
S'Department of Electrical Engineering, Indian Institute of Technology Bombay '
p621
sS'http://www.hss.iitb.ac.in/home/index.php/component/banners/click/15'
p622
S'Dept of Humanities &amp; Social Sciences'
p623
sS'http://www.hss.iitb.ac.in/home/index.php/component/banners/click/14'
p624
S'Dept of Humanities &amp; Social Sciences'
p625
sS'http://www.me.iitb.ac.in/me/programme.php'
p626
S'Mechanical Engineering'
p627
sS'http://www.iitb.ac.in/events/events.html'
p628
S'Indian Institute of Technology, Bombay :: Events'
p629
sS'http://www.che.iitb.ac.in/online/faculty/jayeshbellare'
p630
S'Jayesh  Bellare | Chemical Engineering, IIT Bombay'
p631
sS'http://www.iitb.ac.in/newacadhome/convocation/index.jsp'
p632
S'WELCOME TO THE ACADEMICS HOMEPAGE OF IITB'
p633
sS'http://www.cse.iitb.ac.in/deptwiki/doku.php?do=login&id=start'
p634
S'http://www.cse.iitb.ac.in/deptwiki/doku.php?do=login&id=start'
p635
sS'http://www1.iitb.ac.in/newacadhome/StandardFormatofCourseProposal2011121Dec.pdf'
p636
S'http://www1.iitb.ac.in/newacadhome/StandardFormatofCourseProposal2011-121Dec.pdf'
p637
sS'http://www1.iitb.ac.in/search.html'
p638
S'Search - Expert Details  - IIT Bombay'
p639
sS'http://gpo.iitb.ac.in/src/login.php'
p640
S'http://gpo.iitb.ac.in/src/login.php'
p641
sS'http://www1.iitb.ac.in/newacadhome/D32014.pdf'
p642
S'http://www1.iitb.ac.in/newacadhome/D3-2014.pdf'
p643
sS'http://www.aero.iitb.ac.in/home/index.php?option=com_jcalpro&Itemid=40&extmode=week&date=20150314'
p644
S'Department of Aerospace Engineering'
p645
sS'http://www.iitb.ac.in/en/aboutiitbombay/institutesong'
p646
S'Institute Song | IIT Bombay'
p647
sS'http://www.met.iitb.ac.in/main.html?s=y&sec=activities&content=techconnect'
p648
S'MEMS IITBombay'
p649
sS'http://www.iitb.ac.in/en/education/internationalapplicants'
p650
S'International applicants | IIT Bombay'
p651
sS'http://www.iitb.ac.in/en/aboutiitbombay/campusmap'
p652
S'Campus Map | IIT Bombay'
p653
sS'http://www.aero.iitb.ac.in/home/index.php?option=com_jcalpro&Itemid=40&extmode=week&date=20150404'
p654
S'Department of Aerospace Engineering'
p655
sS'http://gymkhana.iitb.ac.in/~cultural/tally14.html'
p656
S'IITB Culturals | GC Tally 2014'
p657
sS'http://www.iitb.ac.in/newacadhome/urop.jsp'
p658
S'WELCOME TO THE ACADEMICS HOMEPAGE OF IITB'
p659
sS'http://www.ese.iitb.ac.in/event/2015/03/09/month'
p660
S'Events | Department of Energy Science and Engineering '
p661
sS'http://www1.iitb.ac.in/newacadhome/rules/newugrules.html'
p662
S'Link to rules and regulations being followed at IITB'
p663
sS'http://www.phy.iitb.ac.in/prosstud.php'
p664
S'Department of Physics - IIT Bombay - Home'
p665
sS'http://www.iitb.ac.in/en/breakingnews/iitbwinsthomsonreutersindiainnovationaward'
p666
S'IITB wins Thomson Reuters India Innovation Award | IIT Bombay'
p667
sS'http://www.hss.iitb.ac.in/LanguageLab.html'
p668
S'Language Lab'
p669
sS'http://www.hss.iitb.ac.in/home/index.php/home/contactus'
p670
S'Contact Us'
p671
sS'http://www.iitb.ac.in/en/aboutwebsite'
p672
S'About this Website | IIT Bombay'
p673
sS'http://www.ese.iitb.ac.in/content/gridconnectedrooftoppvpowerplantsfrombasicsinstallationhandsexperiencerepeatcours'
p674
S'Grid connected rooftop PV power plants:From Basics to installation with hands-on experience (Repeat Course) | Department of Energy Science and Engineering '
p675
sS'http://csist.hss.iitb.ac.in'
p676
S'http://csist.hss.iitb.ac.in'
p677
sS'http://www.hss.iitb.ac.in/home/index.php/people/students/mphil2013'
p678
S'M.Phil 2013'
p679
sS'http://www.ee.iitb.ac.in/web/information/internal'
p680
S'Department of Electrical Engineering, Indian Institute of Technology Bombay '
p681
sS'http://www.civil.iitb.ac.in/ttable.pdf'
p682
S'http://www.civil.iitb.ac.in/ttable.pdf'
p683
sS'http://www.iitb.ac.in/en/careers/facultyfacilities'
p684
S'Faculty Facilities | IIT Bombay'
p685
sS'http://www.iitb.ac.in/hospital/'
p686
S'IIT Hospital'
p687
sS'http://www1.iitb.ac.in/newacadhome/sitemap.jsp'
p688
S'Site Map'
p689
sS'http://gymkhana.iitb.ac.in/~cultural/freshiezza.html'
p690
S'404 Not Found'
p691
sS'http://www2.iitb.ac.in/academics/mdes'
p692
S'404 Not Found'
p693
sS'http://www.iitb.ac.in/en/gallery/firstgirlstudent'
p694
S'First Girl Student | IIT Bombay'
p695
sS'http://www.me.iitb.ac.in/me/awards.php'
p696
S'Mechanical Engineering'
p697
sS'http://www.iitb.ac.in/alumni/en/content/sarc'
p698
S'SARC | Alumni and Corporate Relations'
p699
sS'http://www.bio.iitb.ac.in/research/safetymeasures'
p700
S'Safety Measures \xc2\xab  Biosciences and Bioengineering'
p701
sS'http://www.ee.iitb.ac.in/web/industrial_relations'
p702
S'Department of Electrical Engineering, Indian Institute of Technology Bombay '
p703
sS'http://www.iitb.ac.in/en/aboutiitbombay/studentaffairsoffice'
p704
S'Student Affairs Office | IIT Bombay'
p705
sS'http://www.bio.iitb.ac.in/people/students/phdstudents'
p706
S'PhD Students \xc2\xab  Biosciences and Bioengineering'
p707
sS'http://www.ir.iitb.ac.in/wpcontent/uploads/MTechMPhilAppform.pdf'
p708
S'http://www.ir.iitb.ac.in/wp-content/uploads/M-Tech-M-Phil-App-form.pdf'
p709
sS'http://www.geos.iitb.ac.in/oldsite/index.html'
p710
S'Department of Earth Sciences, IIT Bombay'
p711
sS'http://www.iitb.ac.in/en/aboutiitbombay/iitbombayfunctionalorganisation'
p712
S'IIT Bombay Functional Organisation | IIT Bombay'
p713
sS'http://www.met.iitb.ac.in/main.html?s=y&sec=activities&content=mma/MMA'
p714
S'MEMS IITBombay'
p715
sS'http://www.iitb.ac.in/en/informationstudents'
p716
S'Information for Students | IIT Bombay'
p717
sS'http://gymkhana.iitb.ac.in/office.htm'
p718
S'Gymkhana, IITB'
p719
sS'http://www1.iitb.ac.in/newacadhome/ProcedureforVerificationofDegreeCertificateorEducation2012135May.pdf'
p720
S'http://www1.iitb.ac.in/newacadhome/ProcedureforVerificationofDegreeCertificateorEducation2012-135May.pdf'
p721
sS'http://www.iitb.ac.in/en/researchhighlight/perceptionssupplychainmanagement'
p722
S'Perceptions in Supply Chain Management | IIT Bombay'
p723
sS'http://www.met.iitb.ac.in/main.html?s=y&sec=academics&content=phdad'
p724
S'MEMS IITBombay'
p725
sS'http://www.iitb.ac.in/sites/default/files/reshigh/20140709%2009%3A33/Filamentforce.jpg'
p726
S'http://www.iitb.ac.in/sites/default/files/reshigh/2014-07-09%2009%3A33/Filament-force.jpg'
p727
sS'http://www.iitb.ac.in/newacadhome/tostat.jsp'
p728
S'WELCOME TO THE ACADEMICS HOMEPAGE OF IITB'
p729
sS'http://portal.iitb.ac.in/'
p730
S'IIT Bombay Portal'
p731
sS'http://www1.iitb.ac.in/students/hostel5.html'
p732
S'Hostels - IIT Bombay'
p733
sS'http://www.iitb.ac.in/en/boardofgovernors'
p734
S'Board of Governors | IIT Bombay'
p735
sS'http://www.ee.iitb.ac.in/web/schedule/events'
p736
S'Department of Electrical Engineering, Indian Institute of Technology Bombay '
p737
sS'http://www.hss.iitb.ac.in'
p738
S'Dept of Humanities &amp; Social Sciences'
p739
sS'http://www.iitb.ac.in/newacadhome/toadmission.jsp'
p740
S'WELCOME TO THE ACADEMICS HOMEPAGE OF IITB'
p741
sS'http://www.che.iitb.ac.in/online/education/ugprogramme/ugcurriculum/undergraduateprojects'
p742
S'Undergraduate Projects | Chemical Engineering, IIT Bombay'
p743
sS'http://www.met.iitb.ac.in/main.html?s=y&sec=aboutUs&content=deptLayout'
p744
S'MEMS IITBombay'
p745
sS'http://www.iitb.ac.in/~crnts/Objectives.html'
p746
S'CRNTS'
p747
sS'http://www.aero.iitb.ac.in/home/index.php?option=com_content&task=view&id=59&Itemid=76'
p748
S'Department of Aerospace Engineering'
p749
sS'http://www.aero.iitb.ac.in/home/index.php?option=com_content&task=blogcategory&id=1&Itemid=42'
p750
S'Department of Aerospace Engineering'
p751
sS'http://www.library.iitb.ac.in/aboutus/locationindex/'
p752
S'Central Library IIT Bombay | Location Index'
p753
sS'http://www.cse.iitb.ac.in/page106'
p754
S'CSE, IIT Bombay'
p755
sS'http://www.ir.iitb.ac.in/wpcontent/uploads/Edit_fullprogformalities1.pdf'
p756
S'http://www.ir.iitb.ac.in/wp-content/uploads/Edit_full-prog-formalities1.pdf'
p757
sS'http://www.ir.iitb.ac.in/?page_id=1077'
p758
S'  Past Exchange Students | IIT Bombay \xe2\x80\x94 International Relations'
p759
sS'http://www.iitb.ac.in/newacadhome/rules/Common_structuremscphd.pdf'
p760
S'http://www.iitb.ac.in/newacadhome/rules/Common_structuremscphd.pdf'
p761
sS'http://www.iitb.ac.in/en/rtihome/publicinformationofficers'
p762
S'Public Information Officers | IIT Bombay'
p763
sS'http://www.ir.iitb.ac.in/?page_id=440'
p764
S'  Chinese | IIT Bombay \xe2\x80\x94 International Relations'
p765
sS'http://www.cse.iitb.ac.in/page185'
p766
S'CSE, IIT Bombay'
p767
sS'http://gymkhana.iitb.ac.in/~cultural/fnm.html'
p768
S'IITB Culturals | Film and Media'
p769
sS'http://www.ese.iitb.ac.in/?q=activities/activities'
p770
S'Page not found | Department of Energy Science and Engineering '
p771
sS'http://www.iitb.ac.in/newacadhome/downloadForms/'
p772
S'WELCOME TO THE ACADEMICS HOMEPAGE OF IITB'
p773
sS'http://www.iitb.ac.in/en/rtihome/monthlyremunerationemployees'
p774
S'Monthly Remuneration of Employees | IIT Bombay'
p775
sS'http://www.iitb.ac.in/en/researchdomain/transportation'
p776
S'Transportation | IIT Bombay'
p777
sS'http://gymkhana.iitb.ac.in/~academics/pgac'
p778
S'Welcome to PGAC'
p779
sS'http://www.aero.iitb.ac.in/home/index.php?option=com_jcalpro&Itemid=40&extmode=day&date=20150308'
p780
S'Department of Aerospace Engineering'
p781
sS'http://www.aero.iitb.ac.in/home/index.php?option=com_jcalpro&Itemid=40&extmode=day&date=20150309'
p782
S'Department of Aerospace Engineering'
p783
sS'http://www1.iitb.ac.in/newacadhome/rules/circularmainpage.jsp'
p784
S'Attention for UG-2 students'
p785
sS'http://www.aero.iitb.ac.in/home/index.php?option=com_jcalpro&Itemid=40&extmode=day&date=20150302'
p786
S'Department of Aerospace Engineering'
p787
sS'http://www.iitb.ac.in/en/researchhighlight/mahatmasmandatesanitation'
p788
S"Mahatma's Mandate: Sanitation | IIT Bombay"
p789
sS'http://www.aero.iitb.ac.in/home/index.php?option=com_jcalpro&Itemid=40&extmode=day&date=20150301'
p790
S'Department of Aerospace Engineering'
p791
sS'http://www.aero.iitb.ac.in/home/index.php?option=com_jcalpro&Itemid=40&extmode=day&date=20150306'
p792
S'Department of Aerospace Engineering'
p793
sS'http://www.aero.iitb.ac.in/home/index.php?option=com_jcalpro&Itemid=40&extmode=day&date=20150307'
p794
S'Department of Aerospace Engineering'
p795
sS'http://www.aero.iitb.ac.in/home/index.php?option=com_jcalpro&Itemid=40&extmode=day&date=20150304'
p796
S'Department of Aerospace Engineering'
p797
sS'http://www.aero.iitb.ac.in/home/index.php?option=com_jcalpro&Itemid=40&extmode=day&date=20150305'
p798
S'Department of Aerospace Engineering'
p799
sS'http://www.library.iitb.ac.in/services/bookbank/'
p800
S'Central Library IIT Bombay | Book Bank'
p801
sS'http://www.iitb.ac.in/en/education/studentcounsellingprogramme'
p802
S'Student Counselling Programme | IIT Bombay'
p803
sS'http://imp.iitb.ac.in'
p804
S'Mail :: Welcome to Horde'
p805
sS'http://www.hss.iitb.ac.in/home/index.php/programmes/phd/previousyearentrancepaper'
p806
S'Past year Entrance papers'
p807
sS'http://www.ese.iitb.ac.in/?q=activities/staffcalendar'
p808
S'Access denied | Department of Energy Science and Engineering '
p809
sS'http://www.ese.iitb.ac.in/sites/default/files/Solar_PV_Training_for_Technicians_9th%20March_2015.pdf'
p810
S'http://www.ese.iitb.ac.in/sites/default/files/Solar_PV_Training_for_Technicians_9th%20March_2015.pdf'
p811
sS'http://www.ir.iitb.ac.in/?page_id=952'
p812
S'  Google Map \xe2\x80\x93 DEAN IR OFFICE | IIT Bombay \xe2\x80\x94 International Relations'
p813
sS'http://www.ircc.iitb.ac.in/IRCCWebpage/rnd/ShortListedCandidatesForInterview.jsp'
p814
S'Contact to IRCC'
p815
sS'http://www.civil.iitb.ac.in/tpmdc'
p816
S'TPMDC 2014'
p817
sS'http://www.iitb.ac.in/newacadhome/Confermentofphd201523Jan.pdf'
p818
S'http://www.iitb.ac.in/newacadhome/Confermentofphd201523Jan.pdf'
p819
sS'http://www.iitb.ac.in/en/entranceexams'
p820
S'Entrance exams | IIT Bombay'
p821
sS'http://www.ircc.iitb.ac.in/IRCCWebpage/rnd/JobOpportunities.jsp'
p822
S'Job Opportunities at IIT Bombay'
p823
sS'http://www.che.iitb.ac.in/online/education'
p824
S'Education | Chemical Engineering, IIT Bombay'
p825
sS'http://www.ee.iitb.ac.in/web/about_ee/how_to_reach_us'
p826
S'Department of Electrical Engineering, Indian Institute of Technology Bombay '
p827
sS'http://www.aero.iitb.ac.in/home/index.php?option=com_jcalpro&Itemid=40&extmode=week&date=20150321'
p828
S'Department of Aerospace Engineering'
p829
sS'http://www.hss.iitb.ac.in/'
p830
S'Dept of Humanities &amp; Social Sciences'
p831
sS'http://www.bio.iitb.ac.in/people'
p832
S'People \xc2\xab  Biosciences and Bioengineering'
p833
sS'http://gpo.iitb.ac.in/src/compose.php?send_to=rpk%40math.iitb.ac.in'
p834
S'IIT Bombay (wm2new) WEBMAIL - Your session has expired, but will be resumed after logging in again.'
p835
sS'http://www.geos.iitb.ac.in/index.php/en/people'
p836
S'People'
p837
sS'http://gymkhana.iitb.ac.in/~cultural/'
p838
S'IITB Culturals | Home'
p839
sS'http://www.met.iitb.ac.in/main.html?s=y&sec=research&content=facilities'
p840
S'MEMS IITBombay'
p841
sS'http://www1.ir.iitb.ac.in/'
p842
S'http://www1.ir.iitb.ac.in/'
p843
sS'http://www.phy.iitb.ac.in/symphy2014'
p844
S'404 Not Found'
p845
sS'http://www.ee.iitb.ac.in/'
p846
S'Department of Electrical Engineering, Indian Institute of Technology Bombay '
p847
sS'http://www.hss.iitb.ac.in/home/index.php/programmes/mphilplanningadevelopment'
p848
S'M.Phil(Planning &amp; Development)'
p849
sS'http://www.idc.iitb.ac.in/projects/recentprojects.html'
p850
S'Projects ,  Industrial Design Centre at IIT Bombay'
p851
sS'http://gymkhana.iitb.ac.in/'
p852
S'Gymkhana, IITB'
p853
sS'http://gymkhana.iitb.ac.in/hostelRooms/'
p854
S'IIT Bombay UG Freshmen Room Allocation '
p855
sS'http://www.iitb.ac.in/en/cepqipcdeep'
p856
S'Outreach Programs | IIT Bombay'
p857
sS'http://gymkhana.iitb.ac.in/~hostel14/'
p858
S'Hostel 14 | Silicon Ship'
p859
sS'http://www1.iitb.ac.in/newacadhome/transcript20101120Dec.pdf'
p860
S'http://www1.iitb.ac.in/newacadhome/transcript2010-1120Dec.pdf'
p861
sS'http://www.met.iitb.ac.in/main.html?s=y&sec=research&content=facilities/equipments'
p862
S'MEMS IITBombay'
p863
sS'http://placements.iitb.ac.in/whyrecruit/world_class_faculty.html'
p864
S'Placements, IIT Bombay'
p865
sS'http://www.iitb.ac.in/en/calendarnodefieldeventdate/year'
p866
S'| IIT Bombay'
p867
sS'http://www.iitb.ac.in/en/breakingnews/thankyouteacher'
p868
S'Thank You, Teacher! | IIT Bombay'
p869
sS'http://www.me.iitb.ac.in/me/groups.php'
p870
S'Mechanical Engineering'
p871
sS'http://www.iitb.ac.in/alumni/en/content/teachersday0'
p872
S'Teachers Day | Alumni and Corporate Relations'
p873
sS'http://www1.iitb.ac.in/deanpl/index.html'
p874
S'Untitled Document'
p875
sS'http://www.iitb.ac.in/alumni/en/content/institutevaledictoryfunction0'
p876
S'Institute Valedictory Function | Alumni and Corporate Relations'
p877
sS'http://www.casde.iitb.ac.in/mdo/'
p878
S'CASDE - MDO'
p879
sS'http://www.iitb.ac.in/en/education/researchscholarscompanionprogramme'
p880
S'Research Scholars Companion Programme | IIT Bombay'
p881
sS'http://www.met.iitb.ac.in/main.html?s=y&sec=people&content=alumni/alumni'
p882
S'MEMS IITBombay'
p883
sS'http://www1.iitb.ac.in/inter_relns.html'
p884
S'International Relationships - IIT Bombay'
p885
sS'http://www1.iitb.ac.in/about/about_iitbNew.html'
p886
S'Indian Institute of Technology, Bombay :: About IITB'
p887
sS'http://www.iitb.ac.in/alumni/en/content/institute'
p888
S'Institute | Alumni and Corporate Relations'
p889
sS'http://gymkhana.iitb.ac.in/~sports/index.php?r=contact'
p890
S'Contact'
p891
sS'http://www.ee.iitb.ac.in/web/people/faculty'
p892
S'Department of Electrical Engineering, Indian Institute of Technology Bombay '
p893
sS'http://www.ese.iitb.ac.in/content/profsrinivasseethamrajuandprofdayadeepmonderjoindese'
p894
S'Prof. Srinivas Seethamraju and Prof. Dayadeep Monder join DESE | Department of Energy Science and Engineering '
p895
sS'http://www.iitb.ac.in/disclaimer.html'
p896
S'Legal Disclaimer - Indian Institute of Technology, Bombay'
p897
sS'http://www1.iitb.ac.in/conference/conference.html'
p898
S''
sS'http://www.che.iitb.ac.in/'
p899
S'Chemical Engineering, IIT Bombay'
p900
sS'http://www1.iitb.ac.in/newacadhome/rules/InformationforfacultyDDbatch08.pdf'
p901
S'http://www1.iitb.ac.in/newacadhome/rules/InformationforfacultyDDbatch08.pdf'
p902
sS'http://www.iitb.ac.in/en/allnews'
p903
S'All News | IIT Bombay'
p904
sS'http://www.aero.iitb.ac.in/home/components/com_fpslideshow/images/scaled.jpg'
p905
S'http://www.aero.iitb.ac.in/home/components/com_fpslideshow/images/scaled.jpg'
p906
sS'http://www.ee.iitb.ac.in/web/faculty/homepage/anc'
p907
S'Department of Electrical Engineering, Indian Institute of Technology Bombay '
p908
sS'http://www.iitb.ac.in/en/tenders'
p909
S'Active Tenders List | IIT Bombay'
p910
sS'http://www.iitb.ac.in/alumni/hi'
p911
S'Alumni and Corporate Relations | Alumni and Corporate Relations'
p912
sS'http://www.idc.iitb.ac.in/admissions/dates.html'
p913
S'Admission Entrance to Industrial Design Centre - DC, IIT Bombay'
p914
sS'http://www.met.iitb.ac.in/main.html?s=y&sec=activities&content=dhatuki/dhatuki'
p915
S'MEMS IITBombay'
p916
sS'http://www.it.iitb.ac.in'
p917
S' Kanwal Rekhi School of Information Technology, IIT Bombay'
p918
sS'http://www.bio.iitb.ac.in/people/students/dualdegree'
p919
S'MSc \xe2\x80\x93 PhD Dual Degree \xc2\xab  Biosciences and Bioengineering'
p920
sS'https://www.ee.iitb.ac.in/course/~vinay/'
p921
S'Vinay Joshi'
p922
sS'http://www.library.iitb.ac.in/services/reference/'
p923
S'Central Library IIT Bombay | Reference'
p924
sS'http://www.iitb.ac.in/sites/default/files/news/201412/IMG_2483.JPG'
p925
S'http://www.iitb.ac.in/sites/default/files/news/2014-12/IMG_2483.JPG'
p926
sS'http://www2.iitb.ac.in/academics/mtech'
p927
S'404 Not Found'
p928
sS'http://gymkhana.iitb.ac.in/~sports/index.php'
p929
S'IITB Sports'
p930
sS'http://www.che.iitb.ac.in/online/research/researchareas'
p931
S'Research Areas  | Chemical Engineering, IIT Bombay'
p932
sS'http://www.iitb.ac.in/sites/default/files/news/201412/IMG_2475_0.JPG'
p933
S'http://www.iitb.ac.in/sites/default/files/news/2014-12/IMG_2475_0.JPG'
p934
sS'http://www.bio.iitb.ac.in/usefulinfo/recruitments'
p935
S'Recruitments \xc2\xab  Biosciences and Bioengineering'
p936
sS'http://www.iitb.ac.in/sites/default/files/Internalfacresearch.doc'
p937
S'404 - Page not found | IIT Bombay'
p938
sS'http://www.ircc.iitb.ac.in/IRCCWebpage/rnd/FeedBack.jsp?purpose=PublicationData'
p939
S'Jobs in IIT Bombay'
p940
sS'http://www.che.iitb.ac.in/oldhome.html'
p941
S'Department of Chemical Engineering'
p942
sS'http://www.cse.iitb.ac.in/page222?batch=BTech4'
p943
S'CSE, IIT Bombay'
p944
sS'http://www.cse.iitb.ac.in/page222?batch=BTech3'
p945
S'CSE, IIT Bombay'
p946
sS'http://www.cse.iitb.ac.in/page222?batch=BTech2'
p947
S'CSE, IIT Bombay'
p948
sS'http://www.cse.iitb.ac.in/page222?batch=BTech1'
p949
S'CSE, IIT Bombay'
p950
sS'http://www.iitb.ac.in/sites/default/files/styles/gallery_item/public/Sukhatme%20teaching%20crop%202l.jpg'
p951
S'http://www.iitb.ac.in/sites/default/files/styles/gallery_item/public/Sukhatme%20teaching%20crop%202-l.jpg'
p952
sS'http://www.ee.iitb.ac.in/web/schedule/seminars'
p953
S'Department of Electrical Engineering, Indian Institute of Technology Bombay '
p954
sS'http://www.che.iitb.ac.in/online/node/4981'
p955
S'Abhijit  Majumder | Chemical Engineering, IIT Bombay'
p956
sS'http://www.hss.iitb.ac.in/home/index.php/events/apsannouncements'
p957
S'APS announcements'
p958
sS'http://www.ir.iitb.ac.in/?page_id=2'
p959
S'  Image-Map to IR office | IIT Bombay \xe2\x80\x94 International Relations'
p960
sS'http://www1.iitb.ac.in/recruit/index.html'
p961
S'Indian Institute of Technology, Bombay :: Recruitments'
p962
sS'http://www.ir.iitb.ac.in/?page_id=9'
p963
S'  Partnerships | IIT Bombay \xe2\x80\x94 International Relations'
p964
sS'http://www.iitb.ac.in/WomensCell/'
p965
S"Women's Cell IITB"
p966
sS'http://www.iitb.ac.in/Information/policy.html'
p967
S'Information Display Policy'
p968
sS'http://www.cse.iitb.ac.in/page117'
p969
S'CSE, IIT Bombay'
p970
sS'http://gymkhana.iitb.ac.in/~cultural/pfa.html'
p971
S'IITB Culturals | PFA'
p972
sS'http://www.iitb.ac.in/en/aboutiitbombay'
p973
S'About IIT Bombay | IIT Bombay'
p974
sS'http://gymkhana.iitb.ac.in/~cultural/cultopediapfa.html'
p975
S'IITB Culturals | Cultopedia'
p976
sS'http://www1.iitb.ac.in/newacadhome/toTraining.jsp'
p977
S'WELCOME TO THE ACADEMICS HOMEPAGE OF IITB'
p978
sS'http://www.ir.iitb.ac.in/?page_id=88'
p979
S'IIT Bombay \xe2\x80\x94 International Relations'
p980
sS'http://www.me.iitb.ac.in/index.html'
p981
S'Mechanical Engineering'
p982
sS'http://www.ircc.iitb.ac.in/IRCCWebpage/rnd/HRMSRegister.jsp'
p983
S''
sS'http://www.ircc.iitb.ac.in/IRCCWebpage/LicensingTechnologies.jsp?TechnologySrNo=1'
p984
S'Licensing at IITB'
p985
sS'http://gpo.iitb.ac.in'
p986
S'(IITB wm3_secure 20140819) - Login'
p987
sS'http://www.iitb.ac.in/en/award/centraldrugresearchinstituteawards2015'
p988
S'Central Drug Research Institute Awards 2015 | IIT Bombay'
p989
sS'http://www1.iitb.ac.in/facilities/kgschool/'
p990
S'IITKG Homepage'
p991
sS'http://www.iitb.ac.in/sites/default/files/employees/KannanMoud.jpg'
p992
S'http://www.iitb.ac.in/sites/default/files/employees/KannanMoud.jpg'
p993
sS'http://www.iitb.ac.in/en/breakingnews/iitbombayxlaunchedrepublicday'
p994
S'IITBombayX launched on Republic Day | IIT Bombay'
p995
sS'http://www.aero.iitb.ac.in/index.php'
p996
S'Department of Aerospace Engineering'
p997
sS'http://www.iitb.ac.in/en/researchdomain/industryandinfrastructure'
p998
S'Industry and Infrastructure | IIT Bombay'
p999
sS'http://gymkhana.iitb.ac.in/~cultural/council12.html'
p1000
S'IITB Culturals | Council 2012-13'
p1001
sS'http://www.iitb.ac.in/sites/default/files/PRMSSchemes_0.pdf'
p1002
S'http://www.iitb.ac.in/sites/default/files/PRMSSchemes_0.pdf'
p1003
sS'http://www.met.iitb.ac.in/main.html?s=y&sec=section&content=legal'
p1004
S'MEMS IITBombay'
p1005
sS'http://www.iitb.ac.in/node/1299'
p1006
S'Page Unavailable'
p1007
sS'http://www.math.iitb.ac.in/people/people.html'
p1008
S'Department of Mathematics, IIT Bombay'
p1009
sS'http://www.met.iitb.ac.in/main.html?s=y&sec=activities&content=mrs14'
p1010
S'MEMS IITBombay'
p1011
sS'http://www1.iitb.ac.in/newacadhome/sscforms/ssc.jsp'
p1012
S'WELCOME TO THE ACADEMICS HOMEPAGE OF IITB'
p1013
sS'http://placements.iitb.ac.in/whyrecruit/alumni.html'
p1014
S'Placements, IIT Bombay'
p1015
sS'http://www.me.iitb.ac.in/~mea'
p1016
S'404 Not Found'
p1017
sS'http://www.iitb.ac.in/en/calendarnodefieldeventdate/week'
p1018
S'| IIT Bombay'
p1019
sS'http://www1.iitb.ac.in/hindi/'
p1020
S'\xe0\xa4\xad\xe0\xa4\xbe\xe0\xa4\xb0\xe0\xa4\xa4\xe0\xa5\x80\xe0\xa4\xaf \xe0\xa4\xaa\xe0\xa5\x8d\xe0\xa4\xb0\xe0\xa5\x8c\xe0\xa4\xa6\xe0\xa5\x8d\xe0\xa4\xaf\xe0\xa5\x8b\xe0\xa4\x97\xe0\xa4\xbf\xe0\xa4\x95\xe0\xa5\x80 \xe0\xa4\xb8\xe0\xa4\x82\xe0\xa4\xb8\xe0\xa5\x8d\xe0\xa4\xa5\xe0\xa4\xbe\xe0\xa4\xa8 \xe0\xa4\xae\xe0\xa5\x81\xe0\xa4\x82\xe0\xa4\xac\xe0\xa4\x88'
p1021
sS'http://www.iitb.ac.in/alumni/en/AlumniAwards'
p1022
S'Alumni Awards | Alumni and Corporate Relations'
p1023
sS'http://www.aero.iitb.ac.in/home/index.php?option=com_jcalpro&Itemid=40&extmode=day&date=20150319'
p1024
S'Department of Aerospace Engineering'
p1025
sS'http://www.aero.iitb.ac.in/home/index.php?option=com_jcalpro&Itemid=40&extmode=day&date=20150318'
p1026
S'Department of Aerospace Engineering'
p1027
sS'http://www.aero.iitb.ac.in/home/index.php?option=com_jcalpro&Itemid=40&extmode=day&date=20150315'
p1028
S'Department of Aerospace Engineering'
p1029
sS'http://www.aero.iitb.ac.in/home/index.php?option=com_jcalpro&Itemid=40&extmode=day&date=20150314'
p1030
S'Department of Aerospace Engineering'
p1031
sS'http://www.aero.iitb.ac.in/home/index.php?option=com_jcalpro&Itemid=40&extmode=day&date=20150317'
p1032
S'Department of Aerospace Engineering'
p1033
sS'http://www.aero.iitb.ac.in/home/index.php?option=com_jcalpro&Itemid=40&extmode=day&date=20150316'
p1034
S'Department of Aerospace Engineering'
p1035
sS'http://www.aero.iitb.ac.in/home/index.php?option=com_jcalpro&Itemid=40&extmode=day&date=20150311'
p1036
S'Department of Aerospace Engineering'
p1037
sS'http://www.aero.iitb.ac.in/home/index.php?option=com_jcalpro&Itemid=40&extmode=day&date=20150310'
p1038
S'Department of Aerospace Engineering'
p1039
sS'http://www.aero.iitb.ac.in/home/index.php?option=com_jcalpro&Itemid=40&extmode=day&date=20150313'
p1040
S'Department of Aerospace Engineering'
p1041
sS'http://www.aero.iitb.ac.in/home/index.php?option=com_jcalpro&Itemid=40&extmode=day&date=20150312'
p1042
S'Department of Aerospace Engineering'
p1043
sS'http://www.iitb.ac.in/en/education/jeeprocedures'
p1044
S'JEE &amp; Procedures | IIT Bombay'
p1045
sS'http://www.ese.iitb.ac.in/?q=academics/mtechprojects2007'
p1046
S'M. Tech Projects - 2007 | Department of Energy Science and Engineering '
p1047
sS'http://www1.iitb.ac.in/fcseminars/seminar.html'
p1048
S''
sS'http://placements.iitb.ac.in/directors_speech.html'
p1049
S'Placements, IIT Bombay'
p1050
sS'http://www1.iitb.ac.in/students/hostel10.html'
p1051
S'Hostels - IIT Bombay'
p1052
sS'http://www.ee.iitb.ac.in/web/schedule/timetable'
p1053
S'Department of Electrical Engineering, Indian Institute of Technology Bombay '
p1054
sS'https://portal.iitb.ac.in/vrp_instructions.jsp'
p1055
S'404 Not Found'
p1056
sS'http://www.bio.iitb.ac.in/usefulinfo'
p1057
S'Useful Info \xc2\xab  Biosciences and Bioengineering'
p1058
sS'http://www1.iitb.ac.in/about/InstituteBrochure.pdf'
p1059
S'http://www1.iitb.ac.in/about/InstituteBrochure.pdf'
p1060
sS'http://www.ircc.iitb.ac.in/IRCCWebpage/rnd/ProjectStaffInfo.jsp'
p1061
S'Project Staff Information in IIT Bombay'
p1062
sS'http://www.ese.iitb.ac.in/?q=academics/minorenergyengineering'
p1063
S'Minor in Energy Engineering | Department of Energy Science and Engineering '
p1064
sS'http://www.iitb.ac.in/node/984'
p1065
S'Page Unavailable'
p1066
sS'http://www.ese.iitb.ac.in/aboutus/downloadsection'
p1067
S'Download Section | Department of Energy Science and Engineering '
p1068
sS'http://www.iitb.ac.in/en/aboutiitbombay/iitbombayadministration'
p1069
S'IIT Bombay Administration | IIT Bombay'
p1070
sS'http://www.iitb.ac.in/en/calendarnodefieldeventdate/day/20150311'
p1071
S'| IIT Bombay'
p1072
sS'http://www.iitb.ac.in/en/calendarnodefieldeventdate/day/20150310'
p1073
S'| IIT Bombay'
p1074
sS'http://www1.iitb.ac.in/deanpl/desCell1.html'
p1075
S'Untitled Document'
p1076
sS'http://www1.iitb.ac.in/acad/index.html'
p1077
S'Indian Institute of Technology, Bombay :: Academics Home'
p1078
sS'http://www.jee.iitb.ac.in'
p1079
S'Announcements | JEE (Advanced) 2015'
p1080
sS'http://www.hss.iitb.ac.in/home/index.php/alumni/recentalumniday'
p1081
S'Recent Alumni Day'
p1082
sS'http://www.geos.iitb.ac.in/images/stories/pdf/cpda_form.pdf'
p1083
S'http://www.geos.iitb.ac.in/images/stories/pdf/cpda_form.pdf'
p1084
sS'http://www.bio.iitb.ac.in/events'
p1085
S'Events \xc2\xab  Biosciences and Bioengineering'
p1086
sS'http://placements.iitb.ac.in/whyrecruit/rankings.html'
p1087
S'Placements, IIT Bombay'
p1088
sS'http://www.che.iitb.ac.in/online/faculty/abhijitchatterjee'
p1089
S'Abhijit  Chatterjee | Chemical Engineering, IIT Bombay'
p1090
sS'http://www.ircc.iitb.ac.in/IRCCWebpage/rnd/AppointedCandidatesForPosts.jsp'
p1091
S'Contact to IRCC'
p1092
sS'http://www.ee.iitb.ac.in/web/schedule'
p1093
S'Department of Electrical Engineering, Indian Institute of Technology Bombay '
p1094
sS'http://www.iitb.ac.in/en/education/academicdivisions'
p1095
S'Academic Divisions | IIT Bombay'
p1096
sS'http://www.phy.iitb.ac.in/doku/doku.php/sapd/council'
p1097
S'DokuWiki Setup Error'
p1098
sS'http://gymkhana.iitb.ac.in/~cultural/la.html'
p1099
S'IITB Culturals | Literary Arts'
p1100
sS'http://www1.iitb.ac.in/newacadhome/toacadcalender.jsp'
p1101
S'WELCOME TO THE ACADEMICS HOMEPAGE OF IITB'
p1102
sS'http://www.library.iitb.ac.in/services/membership/'
p1103
S'Central Library IIT Bombay | Membership'
p1104
sS'http://www.library.iitb.ac.in/eresources/ejournalspublisherwise/'
p1105
S'Central Library IIT Bombay | E-Journals (Publisher Wise)'
p1106
sS'http://www.csre.iitb.ac.in/'
p1107
S'CSRE | Centre of Studies In Resources Engineering - Home'
p1108
sS'http://www.library.iitb.ac.in/newsearchbook/q_word.php?T1=Ebook&m_field=title&m_match=Words&m_media=30&B1=Submit&m_location=1&m_ebk=1'
p1109
S'WebOPAC-Search Engine'
p1110
sS'http://www.hss.iitb.ac.in/home/index.php/people/students/alumni'
p1111
S'Alumni'
p1112
sS'http://www.library.iitb.ac.in/archives/add'
p1113
S'Central Library IIT Bombay | List of Additions'
p1114
sS'http://www.library.iitb.ac.in/aboutus/ourteam/'
p1115
S'Central Library IIT Bombay | Our Team'
p1116
sS'http://gymkhana.iitb.ac.in/activities.htm'
p1117
S'Gymkhana, IITB'
p1118
sS'http://www.aero.iitb.ac.in/home/index.php?option=com_content&task=view&id=120&Itemid=42'
p1119
S'Department of Aerospace Engineering'
p1120
sS'http://www.iitb.ac.in/newacadhome/D1division.pdf'
p1121
S'http://www.iitb.ac.in/newacadhome/D1division.pdf'
p1122
sS'http://www.ir.iitb.ac.in/wpcontent/uploads/Edit_visitingwhileapplying2.pdf'
p1123
S'http://www.ir.iitb.ac.in/wp-content/uploads/Edit_visiting-while-applying2.pdf'
p1124
sS'http://placements.iitb.ac.in/academics/programmes.html'
p1125
S'Placements, IIT Bombay'
p1126
sS'http://www.iitb.ac.in/en/aboutiitbombay/retiredfaculty'
p1127
S'Retired Faculty | IIT Bombay'
p1128
sS'http://www.me.iitb.ac.in/me/misc.html'
p1129
S'Forms'
p1130
sS'http://www.ee.iitb.ac.in/web/home'
p1131
S'Department of Electrical Engineering, Indian Institute of Technology Bombay '
p1132
sS'http://www.casde.iitb.ac.in/'
p1133
S'CASDE - About Us'
p1134
sS'http://www.iitb.ac.in/en/award/editorialboardinternationaljournalgeomechanics2015'
p1135
S'Editorial Board of International Journal of Geomechanics, 2015 | IIT Bombay'
p1136
sS'http://www.iitb.ac.in/sites/default/files/styles/gallery_item/public/10%20%20Students_Guitar.JPG'
p1137
S'http://www.iitb.ac.in/sites/default/files/styles/gallery_item/public/10%20-%20Students_Guitar.JPG'
p1138
sS'http://www.iitb.ac.in/newacadhome/BTech2011201211Jan.pdf'
p1139
S'http://www.iitb.ac.in/newacadhome/BTech2011-201211Jan.pdf'
p1140
sS'http://www1.iitb.ac.in/USVP2013/USVP.htm'
p1141
S'U'
sS'http://www.phy.iitb.ac.in/conferences'
p1142
S'DokuWiki Setup Error'
p1143
sS'http://www.geos.iitb.ac.in/hyperspec13'
p1144
S'Home || HYPERSPECTRA-2013'
p1145
sS'http://www.iitb.ac.in/en/award/fellowindianacademysciences2015'
p1146
S'Fellow of the Indian Academy of Sciences 2015 | IIT Bombay'
p1147
sS'http://gymkhana.iitb.ac.in/~cultural/infraphoto.html'
p1148
S'IITB Culturals | Photo Studio'
p1149
sS'http://www.iitb.ac.in/en/education/msc'
p1150
S'M.Sc. | IIT Bombay'
p1151
sS'http://www.ese.iitb.ac.in/~energyclub/'
p1152
S'Energy Club'
p1153
sS'http://www.ircc.iitb.ac.in/IRCCWebpage/rnd/WebExpertiesSearch.jsp'
p1154
S'Area of Expertise'
p1155
sS'http://www.iitb.ac.in/sites/default/files/news/201409/50th%20Inter%20IIT%20Logo_0.png'
p1156
S'http://www.iitb.ac.in/sites/default/files/news/2014-09/50th%20Inter%20IIT%20Logo_0.png'
p1157
sS'http://www.ir.iitb.ac.in/wpcontent/uploads/Visitingstudentsapplicationform.pdf'
p1158
S'http://www.ir.iitb.ac.in/wp-content/uploads/Visitingstudentsapplicationform.pdf'
p1159
sS'http://www.cdeep.iitb.ac.in'
p1160
S'<title itemprop="name">CDEEP - Centre For Distance Engineering Education Programme'
p1161
sS'http://www.iitb.ac.in/en/breakingnews/iitbfelicitatesmrmanoharparrikar'
p1162
S'IITB felicitates Mr. Manohar Parrikar | IIT Bombay'
p1163
sS'http://www.iitb.ac.in/sites/default/files/mrs.JPG'
p1164
S'http://www.iitb.ac.in/sites/default/files/mrs.JPG'
p1165
sS'http://www.met.iitb.ac.in/~web_beta/main.html?s=y&sec=announcements&content=events/seminar/06.08.2014'
p1166
S'MEMS IITBombay'
p1167
sS'http://www.iitb.ac.in/alumni/en/content/institutefoundationday'
p1168
S'Institute Foundation Day | Alumni and Corporate Relations'
p1169
sS'http://www.mathresource.iitb.ac.in/'
p1170
S'Mathematics Resource Center'
p1171
sS'http://www.hss.iitb.ac.in/home/index.php/component/banners/click/13'
p1172
S'Dept of Humanities &amp; Social Sciences'
p1173
sS'http://www1.iitb.ac.in/acad/Coursereg.pdf'
p1174
S'http://www1.iitb.ac.in/acad/Coursereg.pdf'
p1175
sS'http://www.iitb.ac.in/en/activities/regularinstituteevents'
p1176
S'Regular Institute Events | IIT Bombay'
p1177
sS'http://www.me.iitb.ac.in/~megres'
p1178
S'MEGRES-2015'
p1179
sS'http://www.idc.iitb.ac.in/facilities/index.html'
p1180
S' Facilities: Industrial Design Centre (IDC) IIT Bombay, India '
p1181
sS'http://www.iitb.ac.in/newacadhome/toacadcalender.jsp'
p1182
S'WELCOME TO THE ACADEMICS HOMEPAGE OF IITB'
p1183
sS'http://gymkhana.iitb.ac.in/~cultural/achla.html'
p1184
S'IITB Culturals | Literary Arts'
p1185
sS'http://www.idc.iitb.ac.in/people/faculty.html'
p1186
S'Faculty at the Industrial Design Centre at IIT Bombay'
p1187
sS'http://www.me.iitb.ac.in/InformationforMTechstudents.pdf'
p1188
S'http://www.me.iitb.ac.in/InformationforMTechstudents.pdf'
p1189
sS'http://www.library.iitb.ac.in/blog/category/update/'
p1190
S'Central Library IIT Bombay | Update'
p1191
sS'http://gymkhana.iitb.ac.in/cms_new/'
p1192
S'Complaint Management System IIT Bombay'
p1193
sS'http://www.idc.iitb.ac.in/events/workshopsseminarsschedule.html'
p1194
S'Schedule - Workshops, Seminars: Industrial Design Centre at IIT Bombay'
p1195
sS'http://www.iitb.ac.in/alumni/en/content/reunions'
p1196
S'Reunions | Alumni and Corporate Relations'
p1197
sS'http://www1.iitb.ac.in/academic/offdetail.jsp'
p1198
S'WELCOME TO THE ACADEMICS HOMEPAGE OF IITB'
p1199
sS'http://www1.iitb.ac.in/newacadhome/PhDRules20154Feb.pdf'
p1200
S'http://www1.iitb.ac.in/newacadhome/PhDRules20154Feb.pdf'
p1201
sS'http://www.iitb.ac.in/en/tender/j6414151'
p1202
S'Rate Contract of Suppliers for the Supply of Sanitary Items | IIT Bombay'
p1203
sS'http://www.iitb.ac.in/en/tender/j6414150'
p1204
S'Purchases of Switches | IIT Bombay'
p1205
sS'http://www.iitb.ac.in/en/tender/j6414153'
p1206
S'Empanelment and Rate Contract for PCs and Other Related Items | IIT Bombay'
p1207
sS'http://www.iitb.ac.in/en/tender/j6414152'
p1208
S'Ultra High Performance Liquid Chromatography (UPLC) | IIT Bombay'
p1209
sS'http://www.iitb.ac.in/en/event/lecturethermoelectricityhistoryrenaissanceandchallenges'
p1210
S'Lecture on Thermoelectricity, History, Renaissance, and Challenges | IIT Bombay'
p1211
sS'http://www.ee.iitb.ac.in/web/about_ee/history'
p1212
S'Department of Electrical Engineering, Indian Institute of Technology Bombay '
p1213
sS'http://www.iitb.ac.in/en/informationmedia'
p1214
S'Information for Media | IIT Bombay'
p1215
sS'http://www.che.iitb.ac.in/forcurrentstudents'
p1216
S'404 Not Found'
p1217
sS'http://www1.iitb.ac.in/academic/downloadForms/dupdegree.pdf'
p1218
S'http://www1.iitb.ac.in/academic/downloadForms/dupdegree.pdf'
p1219
sS'http://www.casde.iitb.ac.in/wealso/'
p1220
S'CAS'
p1221
sS'http://www.ee.iitb.ac.in/web/academics/programmes'
p1222
S'Department of Electrical Engineering, Indian Institute of Technology Bombay '
p1223
sS'http://www.iitb.ac.in/en/informationfaculty'
p1224
S'Information for Faculty | IIT Bombay'
p1225
sS'http://www.iitb.ac.in/contact/divisionfunctionaries'
p1226
S'Division Functionaries | IIT Bombay'
p1227
sS'http://www.iitb.ac.in/newacadhome/timetable.jsp'
p1228
S'WELCOME TO THE ACADEMICS HOMEPAGE OF IITB'
p1229
sS'http://www.iitb.ac.in/en/researchdomain/fundamentalscience'
p1230
S'Fundamental Science | IIT Bombay'
p1231
sS'http://www.ese.iitb.ac.in/?q=people/listalumnistudents'
p1232
S'List of Alumni students | Department of Energy Science and Engineering '
p1233
sS'http://www.idc.iitb.ac.in/about/index.html'
p1234
S' About Industrial Design Centre (IDC) IIT Bombay, India '
p1235
sS'http://www.me.iitb.ac.in/me/faculty/faculty_main.php'
p1236
S'Mechanical Engineering'
p1237
sS'http://www1.iitb.ac.in/~qip/'
p1238
S'QIP-IIT Bombay'
p1239
sS'http://gymkhana.iitb.ac.in/~cultural/pgcult.html'
p1240
S'IITB Culturals | PG Cult'
p1241
sS'http://www.iitb.ac.in/researchhighlights/archive'
p1242
S'Archived Research Highlights | IIT Bombay'
p1243
sS'http://www.iitb.ac.in/en/careers/applicationformsfacultypositions'
p1244
S'Application Forms for Faculty Positions | IIT Bombay'
p1245
sS'mailto:licensing@iitb.ac.in'
p1246
S'mailto:licensing@iitb.ac.in'
p1247
sS'http://chisti.ee.iitb.ac.in/complaint/'
p1248
S'AC Maintenance'
p1249
sS'http://www.iitb.ac.in/en/gallery/myfairlady'
p1250
S'My Fair Lady | IIT Bombay'
p1251
sS'http://www1.iitb.ac.in/newacadhome/timetable.jsp'
p1252
S'WELCOME TO THE ACADEMICS HOMEPAGE OF IITB'
p1253
sS'http://www1.iitb.ac.in/students/hostel12.html'
p1254
S'Hostels - IIT Bombay'
p1255
sS'http://www1.iitb.ac.in/imcwork/'
p1256
S'IITB Internal Links'
p1257
sS'http://www.idc.iitb.ac.in/admissions/idcadmission.html'
p1258
S'Entrance Examination: Industrial Design Centre at IIT Bombay'
p1259
sS'http://www.alumni.iitb.ac.in'
p1260
S'Alumni and Corporate Relations | Alumni and Corporate Relations'
p1261
sS'http://www.iitb.ac.in/en/researchhighlights/archive'
p1262
S'Archived Research Highlights | IIT Bombay'
p1263
sS'http://www.che.iitb.ac.in/online/node/5103'
p1264
S'Memoirs of Prof. N R Kamath  | Chemical Engineering, IIT Bombay'
p1265
sS'http://www.iitb.ac.in/en/gallery/conductingclassapart'
p1266
S'Conducting a Class Apart | IIT Bombay'
p1267
sS'http://www.iitb.ac.in/newacadhome/circular.jsp'
p1268
S'WELCOME TO THE ACADEMICS HOMEPAGE OF IITB'
p1269
sS'http://www.aero.iitb.ac.in/'
p1270
S'Department of Aerospace Engineering'
p1271
sS'http://www.hss.iitb.ac.in/home/index.php/people/students'
p1272
S'Dept of Humanities &amp; Social Sciences'
p1273
sS'http://www.bio.iitb.ac.in/academics'
p1274
S'Academics \xc2\xab  Biosciences and Bioengineering'
p1275
sS'http://www1.iitb.ac.in/deanpl/TVC.pdf'
p1276
S'http://www1.iitb.ac.in/deanpl/TVC.pdf'
p1277
sS'http://www.idc.iitb.ac.in/research/overview.html'
p1278
S'Research Overview: Industrial Design Centre (IDC) IIT Bombay, India '
p1279
sS'http://www.iitb.ac.in/sites/default/files/styles/gallery_item/public/06%20%20Computing%20with%20Cards.JPG'
p1280
S'http://www.iitb.ac.in/sites/default/files/styles/gallery_item/public/06%20-%20Computing%20with%20Cards.JPG'
p1281
sS'http://gymkhana.iitb.ac.in/~sports/index.php?r=interiit'
p1282
S'IITB Sports - Interiit'
p1283
sS'http://www.iitb.ac.in/~crnts/'
p1284
S'CRNTS'
p1285
sS'http://www.iitb.ac.in/newacadhome/tocommittee.jsp'
p1286
S'WELCOME TO THE ACADEMICS HOMEPAGE OF IITB'
p1287
sS'http://www.iitb.ac.in/alumni/en/content/currentinitiatives'
p1288
S'Current Initiatives | Alumni and Corporate Relations'
p1289
sS'http://www.met.iitb.ac.in/main.html?s=y&sec=aboutUs&content=vision'
p1290
S'MEMS IITBombay'
p1291
sS'http://www.iitb.ac.in/newacadhome/finalizedacadcalendar09108july.pdf'
p1292
S'http://www.iitb.ac.in/newacadhome/finalizedacadcalendar09-108july.pdf'
p1293
sS'http://www.met.iitb.ac.in/main.html?s=y&sec=people&content=alumni/alumniActivities'
p1294
S'MEMS IITBombay'
p1295
sS'http://www.ese.iitb.ac.in/content/firstprizetechconnect2014'
p1296
S'First Prize in Tech Connect 2014 | Department of Energy Science and Engineering '
p1297
sS'of'
p1298
S'of'
p1299
sS'http://www.met.iitb.ac.in/main.html?s=y&sec=aboutUs&content=howToReachUs'
p1300
S'MEMS IITBombay'
p1301
sS'http://www.math.iitb.ac.in/research/research.html'
p1302
S'Department of Mathematics, IIT Bombay'
p1303
sS'http://www.ese.iitb.ac.in/esa/energystudentsassociationesa'
p1304
S'Energy Students Association (ESA) | Department of Energy Science and Engineering '
p1305
sS'mailto:librarian@iitb.ac.in'
p1306
S'mailto:librarian@iitb.ac.in'
p1307
sS'http://www.iitb.ac.in/newacadhome/acadCal/AcademicCal2008.pdf'
p1308
S'http://www.iitb.ac.in/newacadhome/acadCal/AcademicCal2008.pdf'
p1309
sS'http://placements.iitb.ac.in/academics/departments.html'
p1310
S'Placements, IIT Bombay'
p1311
sS'http://www.che.iitb.ac.in/forcurrentfaculty'
p1312
S'404 Not Found'
p1313
sS'http://www.civil.iitb.ac.in/g_en.html'
p1314
S'Department of Civil Engineering, IIT Bombay'
p1315
sS'http://www.iitb.ac.in/en/careers/facultyrecruitment'
p1316
S'Faculty Recruitment | IIT Bombay'
p1317
sS'http://www.iitb.ac.in/en/aboutiitbombay/studenthostels'
p1318
S'Student Hostels | IIT Bombay'
p1319
sS'http://gymkhana.iitb.ac.in/~cultural/cultonline.html'
p1320
S'IITB Culturals | Cult Online'
p1321
sS'http://www.iitb.ac.in/en/externalrelations/publicrelationsoffice'
p1322
S'Public Relations Office | IIT Bombay'
p1323
sS'http://www.iitb.ac.in/node/407'
p1324
S'Page Unavailable'
p1325
sS'http://www.iitb.ac.in/en/education/admissions'
p1326
S'Admissions | IIT Bombay'
p1327
sS'http://dspace.library.iitb.ac.in/jspui'
p1328
S'DSpace at IIT Bombay: Home'
p1329
sS'http://www.iitb.ac.in/alumni/en/content/convocationday0'
p1330
S'Convocation Day | Alumni and Corporate Relations'
p1331
sS'http://www.hss.iitb.ac.in/home/index.php/courses/btech'
p1332
S'Btech(Course)'
p1333
sS'http://www.hss.iitb.ac.in/home/index.php/events/lecturersatalks'
p1334
S'testing 1'
p1335
sS'http://www.geos.iitb.ac.in/index.php/en/research'
p1336
S'The News'
p1337
sS'http://www.iitb.ac.in/newacadhome/faq.jsp'
p1338
S'WELCOME TO THE ACADEMICS HOMEPAGE OF IITB'
p1339
sS'https://www.ee.iitb.ac.in/web/faculty/homepage/hjbahirat'
p1340
S'Department of Electrical Engineering, Indian Institute of Technology Bombay '
p1341
sS'http://www.aero.iitb.ac.in/pratham/index.php'
p1342
S'404 Not Found'
p1343
sS'http://www.ir.iitb.ac.in/wpcontent/uploads/Edit_visitingformalities1.pdf'
p1344
S'http://www.ir.iitb.ac.in/wp-content/uploads/Edit_visiting-formalities1.pdf'
p1345
sS'http://www.iitb.ac.in/en/activities/newshub'
p1346
S'News Hub | IIT Bombay'
p1347
sS'http://gymkhana.iitb.ac.in/calendar.htm'
p1348
S'Gymkhana, IITB'
p1349
sS'http://www.met.iitb.ac.in/main.html?s=y&sec=people&content=ret_fac'
p1350
S'MEMS IITBombay'
p1351
sS'http://www.ircc.iitb.ac.in/IRCCWebpage/rnd/Publication.jsp'
p1352
S'Brochures of IRCC'
p1353
sS'http://www.casde.iitb.ac.in/aboutus/'
p1354
S'CASDE - About Us'
p1355
sS'http://www.cse.iitb.ac.in/wifi'
p1356
S'404 Not Found'
p1357
sS'http://www.math.iitb.ac.in/guidelines.pdf'
p1358
S'http://www.math.iitb.ac.in/guidelines.pdf'
p1359
sS'http://www.idc.iitb.ac.in/admissions/qualifications.html'
p1360
S'Entrance Qualifications to Industrial Design Centre at IIT Bombay'
p1361
sS'http://www.phy.iitb.ac.in/qcd'
p1362
S'QCD Workshop'
p1363
sS'https://www.cse.iitb.ac.in/roundcube'
p1364
S'CSE Webmail :: Welcome to CSE Webmail'
p1365
sS'http://www.che.iitb.ac.in/prospectivestudents'
p1366
S'404 Not Found'
p1367
sS'http://www1.iitb.ac.in/newacadhome/2014firstyearaccommodationscheme.pdf'
p1368
S'http://www1.iitb.ac.in/newacadhome/2014firstyearaccommodationscheme.pdf'
p1369
sS'http://www.cse.iitb.ac.in/page137'
p1370
S'CSE, IIT Bombay'
p1371
sS'http://www.hss.iitb.ac.in/home/index.php/events/eventarchive'
p1372
S'Event Archive'
p1373
sS'http://www.idc.iitb.ac.in/academics/animation.html'
p1374
S'Animation Program: Industrial Design Centre (IDC) IIT Bombay, India '
p1375
sS'http://www.met.iitb.ac.in/main.html?s=y&sec=people&content=awardsDept&extra=awards/awards12'
p1376
S'MEMS IITBombay'
p1377
sS'http://www1.iitb.ac.in/Awards1/FacultyAwds4.html'
p1378
S'Awards and Distinctions'
p1379
sS'http://www.bio.iitb.ac.in/academics/mtechprogram'
p1380
S'MTech Program \xc2\xab  Biosciences and Bioengineering'
p1381
sS'http://www.iitb.ac.in/en/externalrelations/internationalrelations'
p1382
S'International Relations | IIT Bombay'
p1383
sS'http://www.bio.iitb.ac.in/people/students/mscii'
p1384
S'MSc II \xc2\xab  Biosciences and Bioengineering'
p1385
sS'http://www.met.iitb.ac.in/main.html?s=y&sec=activities&content=mma/mma'
p1386
S'MEMS IITBombay'
p1387
sS'http://www.bio.iitb.ac.in/people/alumni/phdalumnilist'
p1388
S'PhD Alumni List \xc2\xab  Biosciences and Bioengineering'
p1389
sS'http://www.iitb.ac.in/sites/default/files/Externalfacapplicationform.doc'
p1390
S'404 - Page not found | IIT Bombay'
p1391
sS'http://gymkhana.iitb.ac.in'
p1392
S'Gymkhana, IITB'
p1393
sS'http://www.iitb.ac.in/en/aboutiitbombay/institutevisionmission'
p1394
S'Institute Vision &amp; Mission | IIT Bombay'
p1395
sS'http://www.iitb.ac.in/en/internalpages'
p1396
S'Internal Pages | IIT Bombay'
p1397
sS'http://www1.iitb.ac.in/archive/archives.html'
p1398
S'Archives -- IIT Bombay'
p1399
sS'http://www.casde.iitb.ac.in/mav/'
p1400
S'CASDE - MAV'
p1401
sS'http://www.iitb.ac.in/asc/Courses'
p1402
S'COURSE INFORMATION'
p1403
sS'http://www.ircc.iitb.ac.in/IRCCWebpage/rnd/DisplayResearchPapersData.jsp'
p1404
S'IITB-Reaserch Publications'
p1405
sS'http://www.cen.iitb.ac.in/'
p1406
S'CEN - Centre of Excellence in NanoTechnology'
p1407
sS'http://www.met.iitb.ac.in/main.html?s=y&sec=section&content=contactUs'
p1408
S'MEMS IITBombay'
p1409
sS'http://www.ese.iitb.ac.in/content/climatesolveraward2013awardedarundishdevelopedprofkedare'
p1410
S'Climate Solver Award 2013 awarded to Arun Dish developed by Prof. Kedare | Department of Energy Science and Engineering '
p1411
sS'http://www.iitb.ac.in/sites/default/files/article/images/MBknowledgetree.jpg'
p1412
S'http://www.iitb.ac.in/sites/default/files/article/images/MB-knowledge-tree.jpg'
p1413
sS'http://www.aero.iitb.ac.in/home/index.php?option=com_content&task=view&id=118&Itemid=162'
p1414
S'Department of Aerospace Engineering'
p1415
sS'http://www.idc.iitb.ac.in/about/aims.html'
p1416
S' Aims and Concerns: Industrial Design Centre (IDC) IIT Bombay, India '
p1417
sS'http://www.ir.iitb.ac.in/?page_id=42'
p1418
S'  Visits | IIT Bombay \xe2\x80\x94 International Relations'
p1419
sS'http://www.aero.iitb.ac.in/home/index.php?option=com_content&task=view&id=31&Itemid=53'
p1420
S'Department of Aerospace Engineering'
p1421
sS'http://www.met.iitb.ac.in/~steeltech/'
p1422
S'M.Tech. in Steel Technology'
p1423
sS'http://www.math.iitb.ac.in/'
p1424
S'Department of Mathematics, IIT Bombay'
p1425
sS'http://www.geos.iitb.ac.in/images/stories/pdf/sem_himalayanorogen.pdf'
p1426
S'http://www.geos.iitb.ac.in/images/stories/pdf/sem_himalayanorogen.pdf'
p1427
sS'http://www.ese.iitb.ac.in/event/2015/02/09/month/all/all/1'
p1428
S'Events | Department of Energy Science and Engineering '
p1429
sS'http://cuse.iitb.ac.in/'
p1430
S'C-USE        Centre for Urban Science and Engineering | \xe2\x80\xa6improving quality of Urban Life\xe2\x80\xa6'
p1431
sS'http://gymkhana.iitb.ac.in/~cultural/achfnm.html'
p1432
S'IITB Culturals | Film and Media'
p1433
sS'http://www.iitb.ac.in/alumni/en/contactus'
p1434
S'Contact Us | Alumni and Corporate Relations'
p1435
sS'http://www.iitb.ac.in/newacadhome/transcript20101120Dec.pdf'
p1436
S'http://www.iitb.ac.in/newacadhome/transcript2010-1120Dec.pdf'
p1437
sS'http://www.ese.iitb.ac.in/content/shorttermcepcoursepvmodulereliability'
p1438
S'Short-Term CEP Course On PV Module Reliability  | Department of Energy Science and Engineering '
p1439
sS'http://www.iitb.ac.in/en/activities/studentclubs'
p1440
S'Student Clubs | IIT Bombay'
p1441
sS'http://www1.iitb.ac.in/newacadhome/sbiindex.jsp'
p1442
S'WELCOME TO THE ACADEMICS HOMEPAGE OF IITB'
p1443
sS'http://www1.iitb.ac.in/calender.html'
p1444
S'Academic Calender - IIT Bombay'
p1445
sS'http://www.iitb.ac.in/en/researchanddevelopment'
p1446
S'Research and Development | IIT Bombay'
p1447
sS'http://www.che.iitb.ac.in/online/faculty/ratuldasgupta'
p1448
S'Ratul  Dasgupta | Chemical Engineering, IIT Bombay'
p1449
sS'http://www.iitb.ac.in/alumni/en/calendarnodefieldeventdate'
p1450
S'| Alumni and Corporate Relations'
p1451
sS'http://www.che.iitb.ac.in/online/node/5111'
p1452
S'Prof. N R Kamath Centenary Day Celebration Function | Chemical Engineering, IIT Bombay'
p1453
sS'http://gymkhana.iitb.ac.in/~sports/index.php?r=gc'
p1454
S'IITB Sports - Gc'
p1455
sS'http://www.iitb.ac.in/sites/default/files/article/images/iitbmap.jpg'
p1456
S'http://www.iitb.ac.in/sites/default/files/article/images/iitbmap.jpg'
p1457
sS'http://www1.iitb.ac.in/about/contact_iitb.html'
p1458
S'Indian Institute of Technology, Bombay :: Contact Us'
p1459
sS'http://www.ee.iitb.ac.in/web/industrial_relations/e_staff'
p1460
S'Department of Electrical Engineering, Indian Institute of Technology Bombay '
p1461
sS'http://www.library.iitb.ac.in/'
p1462
S'Central Library IIT Bombay | Home'
p1463
sS'http://www.library.iitb.ac.in/services/'
p1464
S'Central Library IIT Bombay | Services'
p1465
sS'http://www.ee.iitb.ac.in/web/information/faculty'
p1466
S'Department of Electrical Engineering, Indian Institute of Technology Bombay '
p1467
sS'http://www.iitb.ac.in/en/rtihome/rtisection4'
p1468
S'RTI Section 4 | IIT Bombay'
p1469
sS'http://www.bio.iitb.ac.in/people/staff'
p1470
S'Staff \xc2\xab  Biosciences and Bioengineering'
p1471
sS'Conference/Workshop'
p1472
S'Announcements - IIT Bombay'
p1473
sS'http://www.iitb.ac.in/en/tender/j6414154'
p1474
S'High Performance Computing Cluster | IIT Bombay'
p1475
sS'http://www.me.iitb.ac.in/me/circulars.html'
p1476
S'Circulars'
p1477
sS'http://www1.iitb.ac.in/newacadhome/Classrooms201515Jan.pdf'
p1478
S'http://www1.iitb.ac.in/newacadhome/Classrooms201515Jan.pdf'
p1479
sS'http://www.iitb.ac.in/sites/default/files/reshigh/201408/goldnanoexcitation.jpg'
p1480
S'http://www.iitb.ac.in/sites/default/files/reshigh/2014-08/goldnano-excitation.jpg'
p1481
sS'http://www.idc.iitb.ac.in/research/index.html'
p1482
S'Research at the Industrial Design Centre at IIT Bombay'
p1483
sS'http://www.ese.iitb.ac.in/research/underconstruction'
p1484
S'Page under Construction | Department of Energy Science and Engineering '
p1485
sS'http://www.che.iitb.ac.in/online/forums/201407245102'
p1486
S'Prof. N R Kamath Centenary day function | Chemical Engineering, IIT Bombay'
p1487
sS'http://www.hss.iitb.ac.in/home/index.php/placement/whyrecruitathss'
p1488
S'Why Recruit at HSS'
p1489
sS'http://www.iitb.ac.in/en/education/researchinternship'
p1490
S'Research Internship | IIT Bombay'
p1491
sS'http://www.iitb.ac.in/en/aboutiitbombay/iitbombayholidayslist'
p1492
S'IIT Bombay Holidays List | IIT Bombay'
p1493
sS'http://www1.iitb.ac.in/Holiday/Holiday2014.html'
p1494
S''
sS'http://placements.iitb.ac.in/files/IITB_Placement_Internship_Report_201314.pdf'
p1495
S'http://placements.iitb.ac.in/files/IITB_Placement_Internship_Report_2013-14.pdf'
p1496
sS'http://www.idc.iitb.ac.in/projects/faculty/facultyprojects.html'
p1497
S'Faculty Projects: Industrial Design Centre at IIT Bombay'
p1498
sS'http://www.casde.iitb.ac.in/imsl/'
p1499
S'CASDE - IMSL'
p1500
sS'http://www.geos.iitb.ac.in/index.php/en/programs'
p1501
S'Academic Programmes '
p1502
sS'mailto:drmm@iitb.ac.in'
p1503
S'mailto:drmm@iitb.ac.in'
p1504
sS'http://www.hss.iitb.ac.in/old.php'
p1505
S'Department of Humanities and Social Sciences, IIT Bombay'
p1506
sS'http://www.cse.iitb.ac.in/page94'
p1507
S'CSE, IIT Bombay'
p1508
sS'http://www.cse.iitb.ac.in/page95'
p1509
S'CSE, IIT Bombay'
p1510
sS'http://gymkhana.iitb.ac.in/~cultural/dance.html'
p1511
S'IITB Culturals | Dance'
p1512
sS'http://www.cse.iitb.ac.in/page244'
p1513
S'CSE, IIT Bombay'
p1514
sS'https://wwwa.iitb.ac.in/alumni/user'
p1515
S'Login | Alumni and Corporate Relations'
p1516
sS'http://www.idc.iitb.ac.in/resources/designindia.html'
p1517
S'Design in India: Industrial Design Centre (IDC) IIT Bombay, India '
p1518
sS'http://www.hss.iitb.ac.in/home/index.php/people/students/mphil2012'
p1519
S'M.Phil. 2012'
p1520
sS'http://www.iitb.ac.in/~crnts/Suggested'
p1521
S'404 - Page not found | IIT Bombay'
p1522
sS'http://www.geos.iitb.ac.in/index.php/en/timetable'
p1523
S'TimeTable '
p1524
sS'http://www.iitb.ac.in/sites/default/files/article/images/gpdarch.jpg'
p1525
S'http://www.iitb.ac.in/sites/default/files/article/images/gpd-arch.jpg'
p1526
sS'http://www.met.iitb.ac.in/main.html?s=y&sec=research&content=research@mems'
p1527
S'MEMS IITBombay'
p1528
sS'http://www.iitb.ac.in/sites/default/files/news/201411/shweta.jpeg'
p1529
S'http://www.iitb.ac.in/sites/default/files/news/2014-11/shweta.jpeg'
p1530
sS'http://www.iitb.ac.in/~crnts/Industry_Interaction.html'
p1531
S'CRNTS'
p1532
sS'http://www.iitb.ac.in/sites/default/files/styles/gallery_item/public/chap4.4_pic14_myfairlady1.jpg'
p1533
S'http://www.iitb.ac.in/sites/default/files/styles/gallery_item/public/chap-4.4_pic14_myfairlady1.jpg'
p1534
sS'http://gymkhana.iitb.ac.in/~sports/index.php?r=pgsports'
p1535
S'IITB Sports - Pgsports'
p1536
sS'https://www.ee.iitb.ac.in/web/faculty/homepage/akumar'
p1537
S'Department of Electrical Engineering, Indian Institute of Technology Bombay '
p1538
sS'http://www.library.iitb.ac.in'
p1539
S'Central Library IIT Bombay | Home'
p1540
sS'http://www.ee.iitb.ac.in/web/about_ee/eesa'
p1541
S'Department of Electrical Engineering, Indian Institute of Technology Bombay '
p1542
sS'http://www.library.iitb.ac.in/services/circulation/'
p1543
S'Central Library IIT Bombay | Circulation'
p1544
sS'http://gymkhana.iitb.ac.in/~sports/index.php?r=trip'
p1545
S'IITB Sports - Trip'
p1546
sS'http://www1.iitb.ac.in/students/hostel11.html'
p1547
S'Hostels - IIT Bombay'
p1548
sS'http://www1.iitb.ac.in/newacadhome/offdetail.jsp'
p1549
S'WELCOME TO THE ACADEMICS HOMEPAGE OF IITB'
p1550
sS'http://www.iitb.ac.in/en/award/insateachersaward2014'
p1551
S'INSA Teachers Award 2014 | IIT Bombay'
p1552
sS'http://www.aero.iitb.ac.in/zephyr/'
p1553
S'Zephyr|2015'
p1554
sS'http://www.library.iitb.ac.in/services/studyroombooks/'
p1555
S'Central Library IIT Bombay | Study Room Books'
p1556
sS'http://www.iitb.ac.in/sites/default/files/Externalfacapplicationform.odt'
p1557
S'404 - Page not found | IIT Bombay'
p1558
sS'http://gymkhana.iitb.ac.in/~cultural/phase114.html'
p1559
S'IITB Culturals | Freshiezza'
p1560
sS'http://www.bio.iitb.ac.in/academics/departmentalcourse'
p1561
S'Departmental Course \xc2\xab  Biosciences and Bioengineering'
p1562
sS'http://www.iitb.ac.in/index.html'
p1563
S'Indian Institute of Technology Bombay'
p1564
sS'http://www.iitb.ac.in/en/education/phdapplicants'
p1565
S'PhD applicants | IIT Bombay'
p1566
sS'http://www.library.iitb.ac.in/archives/workshopreport/'
p1567
S'Central Library IIT Bombay | Workshop Report'
p1568
sS'http://www1.iitb.ac.in/PhDDegrees/PhD13March2014.htm'
p1569
S'Degrees awarded to Ph'
p1570
sS'http://www.iitb.ac.in/~crnts/Research_Activities.html'
p1571
S'CRNTS'
p1572
sS'http://www.me.iitb.ac.in/wiki/doku.php?id=seminar1'
p1573
S'Seminar Series in the Department of Mechanical Engineering    [Department Wiki]'
p1574
sS'http://www.met.iitb.ac.in/~mrsymp/'
p1575
S'MR Symposium 2015'
p1576
sS'http://www.iitb.ac.in/newacadhome/IIfRGrades20143Jan.pdf'
p1577
S'http://www.iitb.ac.in/newacadhome/IIfRGrades20143Jan.pdf'
p1578
sS'http://www.cse.iitb.ac.in/roomscheduler/index.php'
p1579
S'Meeting Room Booking System'
p1580
sS'http://www.geos.iitb.ac.in/index.php/en/admission'
p1581
S'Admission'
p1582
sS'http://orthocad.iitb.ac.in/xrayto3d/'
p1583
S'X-ray Image to 3D Model Generation'
p1584
sS'http://www.ese.iitb.ac.in/~NSTPP'
p1585
S'Welcome to National Solar Thermal Power Plant | National Solar Thermal Power Plant'
p1586
sS'http://gpo.iitb.ac.in/src/compose.php?send_to=hemangik%40iitb.ac.in'
p1587
S'IIT Bombay (wm2new) WEBMAIL - Your session has expired, but will be resumed after logging in again.'
p1588
sS'http://www.math.iitb.ac.in/pvs/pvs.html'
p1589
S'Mathematics Department - IIT Bombay - Number Theory Seminar'
p1590
sS'http://www1.iitb.ac.in/EstateOffice/index.html'
p1591
S''
sS'http://www.bio.iitb.ac.in/awards'
p1592
S'Awards \xc2\xab  Biosciences and Bioengineering'
p1593
sS'http://www.iitb.ac.in/en/researchhighlight/teamworksuperpower'
p1594
S'Teamwork is Superpower | IIT Bombay'
p1595
sS'http://www.geos.iitb.ac.in/images/stories/pdf/sem_koynaregion.pdf'
p1596
S'http://www.geos.iitb.ac.in/images/stories/pdf/sem_koynaregion.pdf'
p1597
sS'http://www.iitb.ac.in/en/node?page=2'
p1598
S'IIT Bombay | IIT Bombay'
p1599
sS'http://www.iitb.ac.in/en/node?page=1'
p1600
S'IIT Bombay | IIT Bombay'
p1601
sS'http://www.iitb.ac.in/en/aboutiitbombay/disclaimer'
p1602
S'Disclaimer | IIT Bombay'
p1603
sS'http://www.iitb.ac.in/sites/default/files/reshigh/201501/Cartilage_biji_Rinti.jpeg'
p1604
S'http://www.iitb.ac.in/sites/default/files/reshigh/2015-01/Cartilage_biji_Rinti.jpeg'
p1605
sS'http://www.iitb.ac.in/en/externalrelations/iitbombaysociety'
p1606
S'IIT Bombay &amp; Society | IIT Bombay'
p1607
sS'http://www.ese.iitb.ac.in/news_and_events'
p1608
S'News and Events | Department of Energy Science and Engineering '
p1609
sS'http://www.met.iitb.ac.in/'
p1610
S'MEMS IITBombay'
p1611
sS'http://www.civil.iitb.ac.in/j_sf.html'
p1612
S'Department of Civil Engineering, IIT Bombay'
p1613
sS'http://www1.iitb.ac.in/deanpl/estOff1.html'
p1614
S'Untitled Document'
p1615
sS'http://gymkhana.iitb.ac.in/~cultural/sa.html'
p1616
S'IITB Culturals | Speaking Arts'
p1617
sS'http://www.ir.iitb.ac.in/?page_id=30'
p1618
S'  Language Courses | IIT Bombay \xe2\x80\x94 International Relations'
p1619
sS'http://www.ir.iitb.ac.in/?page_id=32'
p1620
S'  Past Students | IIT Bombay \xe2\x80\x94 International Relations'
p1621
sS'http://placements.iitb.ac.in/whyrecruit/quotes.html'
p1622
S'Placements, IIT Bombay'
p1623
sS'http://www.iitb.ac.in/sites/default/files/DEEPC.jpg'
p1624
S'http://www.iitb.ac.in/sites/default/files/DEEPC.jpg'
p1625
sS'http://www.civil.iitb.ac.in/a_c.html'
p1626
S'Department of Civil Engineering, IIT Bombay'
p1627
sS'http://www1.iitb.ac.in/newacadhome/todepts.jsp'
p1628
S'WELCOME TO THE ACADEMICS HOMEPAGE OF IITB'
p1629
sS'http://www.met.iitb.ac.in/main.html?s=y&sec=aboutUs&content=HODMessage'
p1630
S'MEMS IITBombay'
p1631
sS'http://www.ir.iitb.ac.in/?page_id=2033'
p1632
S'  Events | IIT Bombay \xe2\x80\x94 International Relations'
p1633
sS'http://gymkhana.iitb.ac.in/~cultural/roots.html'
p1634
S'IITB Culturals | Error 404'
p1635
sS'http://www.library.iitb.ac.in/services/usersawareness/'
p1636
S'Central Library IIT Bombay | Users Awareness'
p1637
sS'http://gymkhana.iitb.ac.in/~cultural/music.html'
p1638
S'IITB Culturals | Music'
p1639
sS'http://www.met.iitb.ac.in/main.html?s=y&sec=activities&content=mma/mmaActivities'
p1640
S'MEMS IITBombay'
p1641
sS'http://gymkhana.iitb.ac.in/~cultural/achmusic.html'
p1642
S'IITB Culturals | Music'
p1643
sS'http://www.iitb.ac.in/~crnts/Staff.html'
p1644
S'CRNTS'
p1645
sS'http://www.et.iitb.ac.in/'
p1646
S''
sS'http://www.met.iitb.ac.in/isnact'
p1647
S'ISNACT 2015 home'
p1648
sS'http://www.iitb.ac.in/newacadhome/rules/circularmainpage.jsp'
p1649
S'Attention for UG-2 students'
p1650
sS'http://gymkhana.iitb.ac.in/~cultural/infralib.html'
p1651
S'IITB Culturals | Library'
p1652
sS'http://gymkhana.iitb.ac.in/~cultural/infrafilm.html'
p1653
S'IITB Culturals | Film Room'
p1654
sS'http://www.library.iitb.ac.in/aboutus/'
p1655
S'Central Library IIT Bombay | About Us'
p1656
sS'http://www.aero.iitb.ac.in/home/index.php?option=com_content&task=view&id=117&Itemid=42'
p1657
S'Department of Aerospace Engineering'
p1658
sS'http://gymkhana.iitb.ac.in/~hostels/'
p1659
S'Hostel Affairs(HA)'
p1660
sS'http://www.iitb.ac.in/sites/default/files/Infosheet11Sep2014.pdf'
p1661
S'http://www.iitb.ac.in/sites/default/files/Infosheet11Sep2014.pdf'
p1662
sS'http://www.ese.iitb.ac.in/faculty'
p1663
S'Department of Energy Science and Engineering '
p1664
sS'http://www1.iitb.ac.in/disclaimer.html'
p1665
S'Legal Disclaimer - Indian Institute of Technology, Bombay'
p1666
sS'http://www.library.iitb.ac.in/blog/newarrivalsdisplaybookslistfrom09032015to15032015/'
p1667
S'Central Library IIT Bombay | New Arrivals: Display Books List from 09/03/2015 To 15/03/2015'
p1668
sS'http://www.iitb.ac.in/sites/default/files/news/201410/kyoorius1%20%281%29.jpg'
p1669
S'http://www.iitb.ac.in/sites/default/files/news/2014-10/kyoorius1%20%281%29.jpg'
p1670
sS'http://www1.iitb.ac.in'
p1671
S'Indian Institute of Technology Bombay'
p1672
sS'http://www.iitb.ac.in/en/gallery/goldenoriole'
p1673
S'Golden Oriole | IIT Bombay'
p1674
sS'http://www.iitb.ac.in/students/clubs.html'
p1675
S'Error | IIT Bombay'
p1676
sS'http://www.ese.iitb.ac.in/content/shorttermcoursesolarphotovoltaictrainingtechnicians'
p1677
S'Short Term Course On  Solar Photovoltaic Training for Technicians | Department of Energy Science and Engineering '
p1678
sS'http://www.iitb.ac.in/newacadhome/finalAsstWeb/financialAsst.htm'
p1679
S'Financial Assistance to students for attending Conferences abroad '
p1680
sS'http://gymkhana.iitb.ac.in/~cultural/webradio.html'
p1681
S'IITB Culturals | IITB Radio'
p1682
sS'http://www1.iitb.ac.in/MSE/MSE.htm'
p1683
S'MONOLINGUAL SEARCH ENGINE'
p1684
sS'http://www1.iitb.ac.in/newacadhome/D22014.pdf'
p1685
S'http://www1.iitb.ac.in/newacadhome/D2-2014.pdf'
p1686
sS'http://www.iitb.ac.in/gallery'
p1687
S'Photo Gallery | IIT Bombay'
p1688
sS'http://www.idc.iitb.ac.in/events/degreeshow.htm'
p1689
S'Annual Design Degree Show DDS: Industrial Design Centre at IIT Bombay'
p1690
sS'http://www.iitb.ac.in/en/aboutiitbombay/directorspage'
p1691
S"Director's Page | IIT Bombay"
p1692
sS'http://www.gate.iitb.ac.in/'
p1693
S'Indian Institute of Technology Bombay: GATE-JAM-CEED Office'
p1694
sS'http://www.iitb.ac.in/newacadhome/solar.jsp'
p1695
S'solar system'
p1696
sS'http://www.aero.iitb.ac.in/home/index.php?option=com_content&task=view&id=112&Itemid=42'
p1697
S'Department of Aerospace Engineering'
p1698
sS'http://www.met.iitb.ac.in/main.html?s=y&sec=people&content=staff/proj'
p1699
S'MEMS IITBombay'
p1700
sS'http://www.iitb.ac.in/alumni/en/content/youngalumnusachieverawards'
p1701
S'Young Alumnus Achiever Awards | Alumni and Corporate Relations'
p1702
sS'http://www.che.iitb.ac.in/online/resources'
p1703
S'Resources | Chemical Engineering, IIT Bombay'
p1704
sS'http://www1.iitb.ac.in/academic/toadmission.jsp'
p1705
S'WELCOME TO THE ACADEMICS HOMEPAGE OF IITB'
p1706
sS'http://www.ee.iitb.ac.in/web/academics/faculty_advisor'
p1707
S'Department of Electrical Engineering, Indian Institute of Technology Bombay '
p1708
sS'http://www.bio.iitb.ac.in/research'
p1709
S'Research \xc2\xab  Biosciences and Bioengineering'
p1710
sS'http://www.met.iitb.ac.in/main.html?s=y&sec=section&content=sitemap'
p1711
S'MEMS IITBombay'
p1712
sS'http://www.library.iitb.ac.in/etd/'
p1713
S'Central Library IIT Bombay | ETD'
p1714
sS'http://www1.iitb.ac.in/newacadhome/Springsemestertimetable1415512015.pdf'
p1715
S'http://www1.iitb.ac.in/newacadhome/Springsemestertimetable1415512015.pdf'
p1716
sS'http://www.library.iitb.ac.in/services/interlibraryloan/'
p1717
S'Central Library IIT Bombay | Inter-Library Loan'
p1718
sS'http://www1.iitb.ac.in/cep'
p1719
S'Continuing Education Programme ( CEP ) at IIT Bombay, India'
p1720
sS'http://www.idc.iitb.ac.in/admissions/index.html'
p1721
S'Admissions at IIT Bombay'
p1722
sS'http://www.casde.iitb.ac.in/pdp/'
p1723
S'CASDE - PDP'
p1724
sS'http://www.library.iitb.ac.in/aboutus/itinfras/'
p1725
S'Central Library IIT Bombay | IT-Infrastructure'
p1726
sS'http://www1.iitb.ac.in/schidps.html'
p1727
S'Indian Institute of Technology, Bombay :: Schools / IDPs'
p1728
sS'http://www.bio.iitb.ac.in/academics/minorcourses'
p1729
S'Minor Courses \xc2\xab  Biosciences and Bioengineering'
p1730
sS'http://www.civil.iitb.ac.in/fac.html'
p1731
S'Department of Civil Engineering, IIT Bombay'
p1732
sS'http://gymkhana.iitb.ac.in/~cultural/cultopediadram.html'
p1733
S'IITB Culturals | Cultopedia'
p1734
sS'http://www.bio.iitb.ac.in/research/facilities'
p1735
S'Facilities \xc2\xab  Biosciences and Bioengineering'
p1736
sS'http://www1.iitb.ac.in/EntpCentre/ESum2014.htm'
p1737
S'IIT Bombay to establish an Entre'
p1738
sS'http://www.che.iitb.ac.in/online/user/password'
p1739
S'User account | Chemical Engineering, IIT Bombay'
p1740
sS'http://www.iitb.ac.in/alumni/en/content/reports'
p1741
S'Reports | Alumni and Corporate Relations'
p1742
sS'http://www1.iitb.ac.in/newacadhome/convocation/index.jsp'
p1743
S'WELCOME TO THE ACADEMICS HOMEPAGE OF IITB'
p1744
sS'http://www1.iitb.ac.in/~cep/'
p1745
S'Continuing Education Programme ( CEP ) at IIT Bombay, India'
p1746
sS'http://www.hss.iitb.ac.in/home/index.php/printableforms/facultyforms'
p1747
S'Faculty Forms '
p1748
sS'http://www.ese.iitb.ac.in/aboutus/background'
p1749
S'Background | Department of Energy Science and Engineering '
p1750
sS'http://www.cc.iitb.ac.in/cgibin/policy.cgi'
p1751
S'LDAP Login Page.'
p1752
sS'http://www1.iitb.ac.in/deanpl/pho.html'
p1753
S'Untitled Document'
p1754
sS'http://gymkhana.iitb.ac.in/~cultural/achdram.html'
p1755
S'IITB Culturals | Dramatics'
p1756
sS'http://www.met.iitb.ac.in/main.html?s=y&sec=people&content=studentList'
p1757
S'MEMS IITBombay'
p1758
sS'http://www.ee.iitb.ac.in/web/about_ee/head_message'
p1759
S'Department of Electrical Engineering, Indian Institute of Technology Bombay '
p1760
sS'http://www.cse.iitb.ac.in/~csea/'
p1761
S'CSEA'
p1762
sS'http://www.iitb.ac.in/sites/default/files/Soumen.jpg'
p1763
S'http://www.iitb.ac.in/sites/default/files/Soumen.jpg'
p1764
sS'http://www.iitb.ac.in/newacadhome/rules/DDMPhD091010july.pdf'
p1765
S'http://www.iitb.ac.in/newacadhome/rules/DDMPhD09-1010july.pdf'
p1766
sS'http://www.alumni.iitb.ac.in/'
p1767
S'Alumni and Corporate Relations | Alumni and Corporate Relations'
p1768
sS'http://www.ircc.iitb.ac.in/IRCCWebpage/Circular/shortlist_IRCC_sysad_2014_117.pdf'
p1769
S'http://www.ircc.iitb.ac.in/IRCC-Webpage/Circular/shortlist_IRCC_sysad_2014_117.pdf'
p1770
sS'http://www.iitb.ac.in/sites/default/files/HBS_0.jpg'
p1771
S'http://www.iitb.ac.in/sites/default/files/HBS_0.jpg'
p1772
sS'http://docs.iitb.ac.in/webmail.tutorial/imp/'
p1773
S'IMP Webmail Service at IITB'
p1774
sS'http://placements.iitb.ac.in/overview.html'
p1775
S'Placements, IIT Bombay'
p1776
sS'http://www.iitb.ac.in/sites/default/files/employees/SHPatil.jpg'
p1777
S'http://www.iitb.ac.in/sites/default/files/employees/SHPatil.jpg'
p1778
sS'http://drona.iitb.ac.in'
p1779
S'http://drona.iitb.ac.in'
p1780
sS'http://www1.iitb.ac.in/students/hostels.html'
p1781
S'Indian Institute of Technology, Bombay :: Hostels'
p1782
sS'http://www1.iitb.ac.in/newacadhome/rules/Dissertation17june0910.pdf'
p1783
S'http://www1.iitb.ac.in/newacadhome/rules/Dissertation17june09-10.pdf'
p1784
sS'http://www.iitb.ac.in/alumni/en/content/youngfacultyawards'
p1785
S'Young Faculty Awards | Alumni and Corporate Relations'
p1786
sS'http://www.met.iitb.ac.in/main.html?s=y&sec=resources&content=infrastructureFacilities'
p1787
S'MEMS IITBombay'
p1788
sS'http://www.math.iitb.ac.in/academic/academic.html'
p1789
S'Department of Mathematics, IIT Bombay'
p1790
sS'http://www.cse.iitb.ac.in/'
p1791
S'CSE, IIT Bombay'
p1792
sS'http://www.math.iitb.ac.in/aboutus/aboutus.html'
p1793
S'Department of Mathematics, IIT Bombay'
p1794
sS'http://pnews.iitb.ac.in/indexing.php?server=news.iitb.ac.in&group=iitb.physics'
p1795
S'CC.IITB News Service - Login '
p1796
sS'http://www.ese.iitb.ac.in/sites/default/files/AbstractSantanu%20Bag.pdf'
p1797
S'http://www.ese.iitb.ac.in/sites/default/files/Abstract-Santanu%20Bag.pdf'
p1798
sS'http://www1.iitb.ac.in/students/hostel7.html'
p1799
S'Hostels - IIT Bombay'
p1800
sS'http://www.met.iitb.ac.in/main.html?s=y&sec=resources&content=phone'
p1801
S'MEMS IITBombay'
p1802
sS'http://www.iitb.ac.in/sites/default/files/news/201412/IMG_2165.JPG'
p1803
S'http://www.iitb.ac.in/sites/default/files/news/2014-12/IMG_2165.JPG'
p1804
sS'http://www.che.iitb.ac.in/online/forums/201401034941'
p1805
S'Ratul joins as a faculty | Chemical Engineering, IIT Bombay'
p1806
sS'http://www.che.iitb.ac.in/online/forums/201401034942'
p1807
S"Devang Khakhar's second term as director | Chemical Engineering, IIT Bombay"
p1808
sS'http://www1.iitb.ac.in/newacadhome/Informationforfacultybatch081201213.pdf'
p1809
S'http://www1.iitb.ac.in/newacadhome/Informationforfacultybatch08-12012-13.pdf'
p1810
sS'http://www.aero.iitb.ac.in/home/index.php?option=com_content&task=view&id=34&Itemid=70'
p1811
S'Department of Aerospace Engineering'
p1812
sS'http://www.phy.iitb.ac.in/'
p1813
S'Department of Physics - IIT Bombay - Home'
p1814
sS'http://www1.iitb.ac.in/students/hostel3.html'
p1815
S'Hostels - IIT Bombay'
p1816
sS'http://www.ese.iitb.ac.in/?q=people/institutestaff'
p1817
S'Institute Staff | Department of Energy Science and Engineering '
p1818
sS'http://www.ircc.iitb.ac.in/IRCCWebpage/rnd/HRMSLoginPage.jsp'
p1819
S''
sS'http://www1.iitb.ac.in/newacadhome/roombook.jsp'
p1820
S'Room Booking'
p1821
sS'http://www.me.iitb.ac.in/ME_TT_Spring2015_v7.pdf'
p1822
S'http://www.me.iitb.ac.in/ME_TT_Spring2015_v7.pdf'
p1823
sS'http://www.iitb.ac.in/en/awards?page=1'
p1824
S'Awards and Honours | IIT Bombay'
p1825
sS'http://www1.iitb.ac.in/newacadhome/JEE201410July.pdf'
p1826
S'http://www1.iitb.ac.in/newacadhome/JEE201410July.pdf'
p1827
sS'http://www.ee.iitb.ac.in/web/research/specializations'
p1828
S'Department of Electrical Engineering, Indian Institute of Technology Bombay '
p1829
sS'http://www1.iitb.ac.in/newacadhome/downloadForms/'
p1830
S'WELCOME TO THE ACADEMICS HOMEPAGE OF IITB'
p1831
sS'http://www.iitb.ac.in/~crnts/Associated_Faculty.html'
p1832
S'CRNTS'
p1833
sS'http://www.ee.iitb.ac.in/web/information/damp'
p1834
S'Department of Electrical Engineering, Indian Institute of Technology Bombay '
p1835
sS'http://www.som.iitb.ac.in/'
p1836
S'Shailesh J. Mehta School of Management, IIT Bombay - Home'
p1837
sS'http://www.ese.iitb.ac.in/academics/admissiondetails'
p1838
S'Admission details | Department of Energy Science and Engineering '
p1839
sS'http://www.ircc.iitb.ac.in/IRCCWebpage/rnd/awards.jsp'
p1840
S'Awards at IITB'
p1841
sS'http://www.ir.iitb.ac.in/wpcontent/uploads/PhDAppform.pdf'
p1842
S'http://www.ir.iitb.ac.in/wp-content/uploads/Ph-D-App-form.pdf'
p1843
sS'http://www.iitb.ac.in/en/aboutiitbombay/statutesiitbombay'
p1844
S'Statutes of IIT Bombay | IIT Bombay'
p1845
sS'http://www.hss.iitb.ac.in/home/index.php/home/aboutthedept'
p1846
S'About The Dept'
p1847
sS'http://placements.iitb.ac.in/academics.html'
p1848
S'Placements, IIT Bombay'
p1849
sS'http://www.ir.iitb.ac.in/?page_id=28'
p1850
S'  Japanese | IIT Bombay \xe2\x80\x94 International Relations'
p1851
sS'http://www.tatacentre.iitb.ac.in/'
p1852
S'Tata Centre Technology &amp; Design, IIT Bombay'
p1853
sS'http://www.ir.iitb.ac.in/?page_id=22'
p1854
S'  French | IIT Bombay \xe2\x80\x94 International Relations'
p1855
sS'http://www.ir.iitb.ac.in/?page_id=26'
p1856
S'  International Students | IIT Bombay \xe2\x80\x94 International Relations'
p1857
sS'http://www.iitb.ac.in/en/aboutiitbombay/annualreports'
p1858
S'Annual Reports | IIT Bombay'
p1859
sS'http://www.ir.iitb.ac.in/?page_id=24'
p1860
S'  German | IIT Bombay \xe2\x80\x94 International Relations'
p1861
sS'http://www1.iitb.ac.in/newacadhome/urop.jsp'
p1862
S'WELCOME TO THE ACADEMICS HOMEPAGE OF IITB'
p1863
sS'http://www1.iitb.ac.in/MexicoPresident/MexicoPre.htm'
p1864
S'Former President of Mexico'
p1865
sS'http://www.library.iitb.ac.in/printjournals/journalsarchive/'
p1866
S'Central Library IIT Bombay | Print Journals Archive'
p1867
sS'http://www.bio.iitb.ac.in/people/researchstaff'
p1868
S'Research / Project Staff \xc2\xab  Biosciences and Bioengineering'
p1869
sS'http://www.idc.iitb.ac.in/projects/student/projectareas.html'
p1870
S'Student Project Areas: Industrial Design Centre at IIT Bombay'
p1871
sS'http://www.iitb.ac.in/en/sitemap'
p1872
S'Site Map | IIT Bombay'
p1873
sS'http://www1.iitb.ac.in/legal/index.html'
p1874
S'Indian Institute of Technology, Bombay :: Right to Information Act'
p1875
sS'http://www.iitb.ac.in/alumni/en/content/iitbombaylifetimeachievementawardjuzervasi'
p1876
S'IIT Bombay LIfetime achievement award for Juzer Vasi | Alumni and Corporate Relations'
p1877
sS'http://www.iitb.ac.in/sites/default/files/styles/gallery_item/public/03%20%20First%20Girl%20Student.JPG'
p1878
S'http://www.iitb.ac.in/sites/default/files/styles/gallery_item/public/03%20-%20First%20Girl%20Student.JPG'
p1879
sS'http://www.iitb.ac.in/rtihome/publicinformationofficers'
p1880
S'Public Information Officers | IIT Bombay'
p1881
sS'http://www.idc.iitb.ac.in/academics/index.html'
p1882
S' Academic programs: Industrial Design Centre (IDC) IIT Bombay, India '
p1883
sS'http://www1.iitb.ac.in/newacadhome/rules/rules_overview_ug2007.pdf'
p1884
S'http://www1.iitb.ac.in/newacadhome/rules/rules_overview_ug2007.pdf'
p1885
sS'http://www1.iitb.ac.in/legal/IITsAct.pdf'
p1886
S'http://www1.iitb.ac.in/legal/IITsAct.pdf'
p1887
sS'http://www.che.iitb.ac.in/online/education/pgprogramme/curriculum/mtechseminartopic/mtechseminartopicresearchareas'
p1888
S'M.Tech Seminar Topic by Research Areas | Chemical Engineering, IIT Bombay'
p1889
sS'http://www.iitb.ac.in/en/gallery'
p1890
S'Photo Gallery | IIT Bombay'
p1891
sS'http://www.che.iitb.ac.in/online/about'
p1892
S'About | Chemical Engineering, IIT Bombay'
p1893
sS'http://www.ircc.iitb.ac.in/fellowship/'
p1894
S''
sS'http://www.met.iitb.ac.in/main.html?s=y&sec=academics&content=curriculum'
p1895
S'MEMS IITBombay'
p1896
sS'http://www.ir.iitb.ac.in/?page_id=2208'
p1897
S'  Italian | IIT Bombay \xe2\x80\x94 International Relations'
p1898
sS'http://www.idc.iitb.ac.in/'
p1899
S' Industrial Design Centre (IDC), Indian Institute of Technology Bombay(IIT Bombay), India'
p1900
sS'http://www.iitb.ac.in/alumni/en/content/studentscholarships'
p1901
S'Student Scholarships | Alumni and Corporate Relations'
p1902
sS'http://gymkhana.iitb.ac.in/~cultural/achsa.html'
p1903
S'IITB Culturals | Speaking Arts'
p1904
sS'http://www.met.iitb.ac.in/main.html?s=y&sec=activities&content=mma/mmaContacts'
p1905
S'MEMS IITBombay'
p1906
sS'http://www1.iitb.ac.in/WomensCell/data/minutes.pdf'
p1907
S'http://www1.iitb.ac.in/WomensCell/data/minutes.pdf'
p1908
sS'http://www.idc.iitb.ac.in/people/supportstaff.html'
p1909
S'support-staff at the Industrial Design Centre at IIT Bombay'
p1910
sS'http://gymkhana.iitb.ac.in/~cultural/bns'
p1911
S'Buy and Sell | IITB Culturals'
p1912
sS'http://www.ese.iitb.ac.in/?q=academics/admissiondetails'
p1913
S'Admission details | Department of Energy Science and Engineering '
p1914
sS'http://www.iitb.ac.in/sites/default/files/Internalfacteaching.doc'
p1915
S'404 - Page not found | IIT Bombay'
p1916
sS'http://www.iitb.ac.in/legal/index.html'
p1917
S'Indian Institute of Technology, Bombay :: Right to Information Act'
p1918
sS'http://www.bio.iitb.ac.in/people/alumni'
p1919
S'Alumni \xc2\xab  Biosciences and Bioengineering'
p1920
sS'http://www.aero.iitb.ac.in/home/index.php?option=com_content&task=view&id=116&Itemid=42'
p1921
S'Department of Aerospace Engineering'
p1922
sS'http://www.iitb.ac.in/alumni/en/content/alumni'
p1923
S'Alumni | Alumni and Corporate Relations'
p1924
sS'http://placements.iitb.ac.in/student_profiles.html'
p1925
S'Placements, IIT Bombay'
p1926
sS'http://www1.iitb.ac.in/newacadhome/rules/DDMPhD091010july.pdf'
p1927
S'http://www1.iitb.ac.in/newacadhome/rules/DDMPhD09-1010july.pdf'
p1928
sS'http://gpo.iitb.ac.in/src/compose.php?send_to=mitras%40iitb.ac.in'
p1929
S'IIT Bombay (wm2new) WEBMAIL - Your session has expired, but will be resumed after logging in again.'
p1930
sS'http://www1.iitb.ac.in/students/hostel13.html'
p1931
S'Hostels - IIT Bombay'
p1932
sS'http://www.ctara.iitb.ac.in/'
p1933
S'CTARA - Home'
p1934
sS'http://gpo.iitb.ac.in/src/compose.php?send_to=head.cc%40iitb.ac.in'
p1935
S'IIT Bombay (wm2new) WEBMAIL - Your session has expired, but will be resumed after logging in again.'
p1936
sS'http://www.bio.iitb.ac.in/people/students/mtechi'
p1937
S'MTech I \xc2\xab  Biosciences and Bioengineering'
p1938
sS'http://gymkhana.iitb.ac.in/~cultural/council13.html'
p1939
S'IITB Culturals | Council 2013-14'
p1940
sS'http://www.cse.iitb.ac.in/page101'
p1941
S'CSE, IIT Bombay'
p1942
sS'http://www.met.iitb.ac.in/main.html?s=y&sec=people&content=staff/nonTech'
p1943
S'MEMS IITBombay'
p1944
sS'http://www.ee.iitb.ac.in/web/people'
p1945
S'Department of Electrical Engineering, Indian Institute of Technology Bombay '
p1946
sS'http://www1.iitb.ac.in/tenders/'
p1947
S'Indian Institute of Technology, Bombay :: About IITB'
p1948
sS'http://www.cc.iitb.ac.in/'
p1949
S'Home'
p1950
sS'http://www.met.iitb.ac.in/main.html?s=y&sec=resources&content=academicResources'
p1951
S'MEMS IITBombay'
p1952
sS'http://www.ee.iitb.ac.in/web/academics/admissions'
p1953
S'Department of Electrical Engineering, Indian Institute of Technology Bombay '
p1954
sS'http://www.aero.iitb.ac.in/~airships'
p1955
S'PADD'
p1956
sS'http://www.iitb.ac.in/en/placementsiitb'
p1957
S'Placements at IITB | IIT Bombay'
p1958
sS'http://www.phy.iitb.ac.in/XRDForm.pdf'
p1959
S'http://www.phy.iitb.ac.in/X-RD-Form.pdf'
p1960
sS'http://www.it.iitb.ac.in/resources/library/'
p1961
S'Library'
p1962
sS'http://www.ese.iitb.ac.in/?q=people/projectstaffandresearchassistants'
p1963
S'Project Staff and Research Assistants | Department of Energy Science and Engineering '
p1964
sS'http://www.iitb.ac.in/en/researchhighlight/xrayto3d'
p1965
S'X-ray to 3D | IIT Bombay'
p1966
sS'http://www.geos.iitb.ac.in/~ersa/'
p1967
S'Earth Sciences Association - Welcome'
p1968
sS'http://www.cc.iitb.ac.in/home/31articles/8issomeonedemandingyourpasswordspishingmails.html'
p1969
S'Home'
p1970
sS'http://www.ee.iitb.ac.in/web/people/visitors'
p1971
S'Department of Electrical Engineering, Indian Institute of Technology Bombay '
p1972
sS'http://www.bio.iitb.ac.in/academics/instituteelective'
p1973
S'Institute Elective \xc2\xab  Biosciences and Bioengineering'
p1974
sS'http://www.iitb.ac.in/en/aboutiitbombay/termsuse'
p1975
S'Terms of Use | IIT Bombay'
p1976
sS'http://www.iitb.ac.in/en/event/confermentphddegreeinterimconvocation'
p1977
S'Conferment of Ph.D. Degree: Interim Convocation | IIT Bombay'
p1978
sS'http://www.iitb.ac.in/~crnts/Phd_Student.html'
p1979
S'CRNTS'
p1980
sS'http://www.ir.iitb.ac.in/?page_id=396'
p1981
S'  Process for Outbound Exchange Students | IIT Bombay \xe2\x80\x94 International Relations'
p1982
sS'http://www.ee.iitb.ac.in/web/academics'
p1983
S'Department of Electrical Engineering, Indian Institute of Technology Bombay '
p1984
sS'http://www2.iitb.ac.in:8080/placement/'
p1985
S'http://www2.iitb.ac.in:8080/placement/'
p1986
sS'http://www.met.iitb.ac.in/main.html?s=y&sec=announcements&content=events/seminar/18.3.14'
p1987
S'MEMS IITBombay'
p1988
sS'http://www.iitb.ac.in/alumni/en/content/distinguishedserviceawards'
p1989
S'Distinguished Service Awards | Alumni and Corporate Relations'
p1990
sS'http://www.idc.iitb.ac.in/projects/index.html'
p1991
S'Projects ,  Industrial Design Centre at IIT Bombay'
p1992
sS'http://www.math.iitb.ac.in/~seminar/'
p1993
S'Mathematics Department - IIT Bombay - Seminar Homepage'
p1994
sS'http://www.ese.iitb.ac.in/?q=aboutus/contactus'
p1995
S'Contact Us | Department of Energy Science and Engineering '
p1996
sS'http://www1.iitb.ac.in/newacadhome/tocommittee.jsp'
p1997
S'WELCOME TO THE ACADEMICS HOMEPAGE OF IITB'
p1998
sS'http://www.iitb.ac.in/alumni/en/Faculty'
p1999
S'Faculty | Alumni and Corporate Relations'
p2000
sS'http://www.iitb.ac.in/newacadhome/D22014.pdf'
p2001
S'http://www.iitb.ac.in/newacadhome/D2-2014.pdf'
p2002
sS'http://www.met.iitb.ac.in/main.html?s=y&sec=people&content=staff'
p2003
S'MEMS IITBombay'
p2004
sS'http://www1.iitb.ac.in/newacadhome/finalAsstWeb/financialAsst.htm'
p2005
S'Financial Assistance to students for attending Conferences abroad '
p2006
sS'http://gymkhana.iitb.ac.in/~sports/index.php?r=events'
p2007
S'IITB Sports - Events'
p2008
sS'http://www.iitb.ac.in/search.html'
p2009
S'Search - Expert Details  - IIT Bombay'
p2010
sS'http://www.iitb.ac.in/'
p2011
S'IIT Bombay | IIT Bombay'
p2012
sS'http://www.idc.iitb.ac.in/about/studios.html'
p2013
S' Studio facility: Industrial Design Centre (IDC) IIT Bombay, India '
p2014
sS'http://www.ircc.iitb.ac.in/IRCCWebpage/ippolicy.jsp'
p2015
S'Intellectual Property Rights of IIT Bombay'
p2016
sS'http://www.ir.iitb.ac.in/?page_id=137'
p2017
S'IIT Bombay \xe2\x80\x94 International Relations'
p2018
sS'http://www.iitb.ac.in/en/story/archive'
p2019
S'Archive of Stories | IIT Bombay'
p2020
sS'http://www.ir.iitb.ac.in/?page_id=139'
p2021
S'IIT Bombay \xe2\x80\x94 International Relations'
p2022
sS'http://www.iitb.ac.in/~crnts/Statistics'
p2023
S'404 - Page not found | IIT Bombay'
p2024
sS'http://www.library.iitb.ac.in/blog/newarrivalsdisplaybookslistfrom16022015to22022015/'
p2025
S'Central Library IIT Bombay | New Arrivals: Display Books List from 16/02/2015 To 22/02/2015'
p2026
sS'http://placements.iitb.ac.in/whyrecruit/research_and_development.html'
p2027
S'Placements, IIT Bombay'
p2028
sS'http://www.ircc.iitb.ac.in/IRCCWebpage/rnd/LicensingTechnologiesRegistration.jsp?TechnologySrNo=&CategorySrNo='
p2029
S'About Industrial Research &amp; Consultancy Centre'
p2030
sS'http://www.iitb.ac.in/en/aboutiitbombay/postretirementmedicalscheme'
p2031
S'Post-Retirement Medical Scheme | IIT Bombay'
p2032
sS'http://www.library.iitb.ac.in/aboutus/renovationplans/'
p2033
S'Central Library IIT Bombay | Renovation Plans'
p2034
sS'http://www.met.iitb.ac.in/main.html?s=y&sec=people&content=facultyCommittees'
p2035
S'MEMS IITBombay'
p2036
sS'http://www.iitb.ac.in/en/researchhighlights/archive?page=1'
p2037
S'Archived Research Highlights | IIT Bombay'
p2038
sS'http://www.idc.iitb.ac.in/people/index.html'
p2039
S'People - Alumni, Faculty, Staff, Students of IDC, IIT Bombay'
p2040
sS'http://www.ir.iitb.ac.in/?page_id=15'
p2041
S'  Contact Us | IIT Bombay \xe2\x80\x94 International Relations'
p2042
sS'http://www.idc.iitb.ac.in/research/partnership.html'
p2043
S'Partnership - Research and Development R &amp; D: Industrial Design Centre (IDC) IIT Bombay, India '
p2044
sS'http://www.che.iitb.ac.in/online/research/publications'
p2045
S'Publications | Chemical Engineering, IIT Bombay'
p2046
sS'http://www.iitb.ac.in/en/gallery/jinglinghigh'
p2047
S'Jingling High Up | IIT Bombay'
p2048
sS'http://www.ir.iitb.ac.in/?page_id=18'
p2049
S'  Current Students | IIT Bombay \xe2\x80\x94 International Relations'
p2050
sS'http://www.me.iitb.ac.in/~mea/newsletter.html'
p2051
S'404 Not Found'
p2052
sS'http://www.ee.iitb.ac.in/web/academics/curriculum'
p2053
S'Department of Electrical Engineering, Indian Institute of Technology Bombay '
p2054
sS'http://www.ee.iitb.ac.in/web/about_ee'
p2055
S'Department of Electrical Engineering, Indian Institute of Technology Bombay '
p2056
sS'http://www.idc.iitb.ac.in/admissions/placements_newcollaborations.html'
p2057
S'Placement New Collaborations - Industrial Design Centre at IIT Bombay'
p2058
sS'http://www.bio.iitb.ac.in/seminars'
p2059
S'Seminars \xc2\xab  Biosciences and Bioengineering'
p2060
sS'http://www.che.iitb.ac.in/online/event'
p2061
S'Events | Chemical Engineering, IIT Bombay'
p2062
sS'http://www.ese.iitb.ac.in/content/heliosenergyday2014'
p2063
S'Helios-Energy Day 2014 | Department of Energy Science and Engineering '
p2064
sS'http://www.met.iitb.ac.in/main.html?s=y&sec=activities&content=dhatuki/dhatukiContact'
p2065
S'MEMS IITBombay'
p2066
sS'http://www.bio.iitb.ac.in/contactus'
p2067
S'Contact us \xc2\xab  Biosciences and Bioengineering'
p2068
sS'http://gymkhana.iitb.ac.in/~cultural/index.html'
p2069
S'IITB Culturals | Home'
p2070
sS'http://www.che.iitb.ac.in/online/forums/201410225156'
p2071
S'INAE Young Engineer Award for Prof. Abhijit | Chemical Engineering, IIT Bombay'
p2072
sS'http://www.iitb.ac.in/en/breakingnews/50thinteriitsportsmeet2014'
p2073
S'50th Inter-IIT Sports Meet 2014 | IIT Bombay'
p2074
sS'http://www.iitb.ac.in/~crnts/Academic_Activites.html'
p2075
S'CRNTS'
p2076
sS'http://www1.iitb.ac.in/PRMS/PRMS.html'
p2077
S'Post Retirement Medical Benefit Scheme'
p2078
sS'http://www.aero.iitb.ac.in/home/index.php?option=com_jcalpro&Itemid=40&extmode=day&date=20150303'
p2079
S'Department of Aerospace Engineering'
p2080
sS'http://www.iitb.ac.in/en/careers/staffrecruitment'
p2081
S'Staff Recruitment | IIT Bombay'
p2082
sS'http://www.ee.iitb.ac.in/web/schedule/event/IndiaTrento_Program_for_Advanced_ResearchITPAR_workshop_on_NanoMicro_mechanical_Sensing_Systems_for_Chemical_Bio_and_Agriculture_Applications_20141001'
p2083
S'Department of Electrical Engineering, Indian Institute of Technology Bombay '
p2084
sS'http://www.iitb.ac.in/alumni/en/content/distinguishedalumnusawards'
p2085
S'Distinguished Alumnus Awards | Alumni and Corporate Relations'
p2086
sS'http://www.aero.iitb.ac.in/home/index.php?option=com_content&task=view&id=83&Itemid=141'
p2087
S'Department of Aerospace Engineering'
p2088
sS'http://www.aero.iitb.ac.in/~krish/hypersonic.htm'
p2089
S'CFD Group'
p2090
sS'https://gpo.iitb.ac.in'
p2091
S'(IITB wm3_secure 20140819) - Login'
p2092
sS'http://www.civil.iitb.ac.in/index.phtml'
p2093
S'Department of Civil Engineering, IIT Bombay'
p2094
sS'http://placements.iitb.ac.in/whyrecruit/selection_process.html'
p2095
S'Placements, IIT Bombay'
p2096
sS'http://www.iitb.ac.in/asc/Login'
p2097
S'IIT External portal Login'
p2098
sS'http://www.ircc.iitb.ac.in/IRCCWebpage/rnd/WorkOpportunities.jsp'
p2099
S'Jobs in IIT Bombay'
p2100
sS'http://www.ee.iitb.ac.in/web/people/staff'
p2101
S'Department of Electrical Engineering, Indian Institute of Technology Bombay '
p2102
sS'http://www.cse.iitb.ac.in/~ttc'
p2103
S' Time Table '
p2104
sS'http://www.che.iitb.ac.in/online/forums/201403074984'
p2105
S'Abhijit joins as a faculty | Chemical Engineering, IIT Bombay'
p2106
sS'http://www.iitb.ac.in/sites/default/files/styles/gallery_item/public/GoldenOriole.jpeg'
p2107
S'http://www.iitb.ac.in/sites/default/files/styles/gallery_item/public/GoldenOriole.jpeg'
p2108
sS'http://www.aero.iitb.ac.in/home/index.php?option=com_content&task=view&id=107&Itemid=42'
p2109
S'Department of Aerospace Engineering'
p2110
sS'http://www.iitb.ac.in/alumni/en/Institutefunctions'
p2111
S'Institute Functions | Alumni and Corporate Relations'
p2112
sS'http://www.met.iitb.ac.in/main.html?s=y&sec=faq&content=faqMain'
p2113
S'MEMS IITBombay'
p2114
sS'http://www1.iitb.ac.in/newacadhome/D1division.pdf'
p2115
S'http://www1.iitb.ac.in/newacadhome/D1division.pdf'
p2116
sS'http://www.idc.iitb.ac.in/about/Vision_Mission.html'
p2117
S'Vision &amp; Mission: Industrial Design Centre (IDC) IIT Bombay, India'
p2118
sS'http://www.library.iitb.ac.in/bankrates'
p2119
S'Central Library IIT Bombay | Bank Rates'
p2120
sS'http://www1.iitb.ac.in/students/hostel8.html'
p2121
S'Hostels - IIT Bombay'
p2122
sS'http://www.hss.iitb.ac.in/home/index.php/programmes/phd'
p2123
S'PhD(Programmes)'
p2124
sS'http://www.jee.iitb.ac.in/'
p2125
S'Announcements | JEE (Advanced) 2015'
p2126
sS'http://www.casde.iitb.ac.in/ideas/'
p2127
S'CASDE - IDeAS'
p2128
sS'http://gymkhana.iitb.ac.in/~cultural/tally13.html'
p2129
S'IITB Culturals | GC Tally 2013-14'
p2130
sS'http://www.met.iitb.ac.in/main.html?sec=people&content=facultyProfiles/facPro1'
p2131
S'MEMS IITBombay'
p2132
sS'http://www.phy.iitb.ac.in/index.php?Page=Home'
p2133
S'Department of Physics - IIT Bombay - Home'
p2134
sS'http://www.iitb.ac.in/en/researchhighlight/aimingmoonandbeyond'
p2135
S'Aiming for the moon and beyond | IIT Bombay'
p2136
sS'http://www.civil.iitb.ac.in/cea'
p2137
S'Civil Engineering Department'
p2138
sS'http://www.iitb.ac.in/en/contact/institutefunctionaries'
p2139
S'Institute Functionaries | IIT Bombay'
p2140
sS'http://gymkhana.iitb.ac.in/~sports/index.php?r=awards'
p2141
S'IITB Sports - Awards'
p2142
sS'http://www.civil.iitb.ac.in/dmail/src/login.php'
p2143
S'http://www.civil.iitb.ac.in/dmail/src/login.php'
p2144
sS'http://www.iitb.ac.in/en/contact/divisionfunctionaries'
p2145
S'Division Functionaries | IIT Bombay'
p2146
sS'http://www.che.iitb.ac.in/online/user/login'
p2147
S'http://www.che.iitb.ac.in/online/user/login'
p2148
sS'http://www1.iitb.ac.in/EMBA/EMBA.htm'
p2149
S'First U'
p2150
sS'http://www.iitb.ac.in/en/informationindustry'
p2151
S'Information for Industry | IIT Bombay'
p2152
sS'http://www.cse.iitb.ac.in/page46?staffType=technical'
p2153
S'CSE, IIT Bombay'
p2154
sS'http://www.met.iitb.ac.in/main.html?s=y&sec=people&content=council1415'
p2155
S'MEMS IITBombay'
p2156
sS'http://www.cese.iitb.ac.in/'
p2157
S'Centre for Environmental Science and Engineering, IIT-Bombay'
p2158
sS'http://www.ese.iitb.ac.in/content/1styearstudentsaccommodationplan2014'
p2159
S'1st year students accommodation plan-2014 | Department of Energy Science and Engineering '
p2160
sS'http://www.iitb.ac.in/en/tender/j671415'
p2161
S'Fully Motorized Inverted Microscope for Multi-Position 3D Live Cell Imaging | IIT Bombay'
p2162
sS'http://www.hss.iitb.ac.in/home/Circular%20for%20Ph.D.%20students.pdf'
p2163
S'http://www.hss.iitb.ac.in/home/Circular%20for%20Ph.D.%20students.pdf'
p2164
sS'http://www.cse.iitb.ac.in/page213'
p2165
S'CSE, IIT Bombay'
p2166
sS'http://www.cse.iitb.ac.in/page212'
p2167
S'CSE, IIT Bombay'
p2168
sS'http://www.iitb.ac.in/alumni/en/HeritageFoundation'
p2169
S'Heritage Foundation | Alumni and Corporate Relations'
p2170
sS'http://www.library.iitb.ac.in/eresources/cddvd/'
p2171
S'Central Library IIT Bombay | CDs and DVDs'
p2172
sS'http://www1.iitb.ac.in/newacadhome/faq.jsp'
p2173
S'WELCOME TO THE ACADEMICS HOMEPAGE OF IITB'
p2174
sS'http://www.che.iitb.ac.in/online/careersandopportunities'
p2175
S'Careers and opportunities | Chemical Engineering, IIT Bombay'
p2176
sS'http://www.iitb.ac.in/en/researchhighlight/gisbasedfloodassessment'
p2177
S'GIS based Flood Assessment | IIT Bombay'
p2178
sS'http://www.idc.iitb.ac.in/about/campus.html'
p2179
S' Campus and environment: Industrial Design Centre (IDC) IIT Bombay, India '
p2180
sS'http://www.iitb.ac.in/staffclub/'
p2181
S'Staff Club IIT Bombay'
p2182
sS'http://www.phy.iitb.ac.in/doku/doku.php/sapd/home'
p2183
S'DokuWiki Setup Error'
p2184
sS'http://www.iitb.ac.in/sites/default/files/reshigh/201501/cosmetics_surfer.jpg'
p2185
S'http://www.iitb.ac.in/sites/default/files/reshigh/2015-01/cosmetics_surfer.jpg'
p2186
sS'http://www.cse.iitb.ac.in/page36'
p2187
S'CSE, IIT Bombay'
p2188
sS'http://www.iitb.ac.in/en/education/whyiitb'
p2189
S'Why IITB? | IIT Bombay'
p2190
sS'http://www.ee.iitb.ac.in/web/research/outreach'
p2191
S'Department of Electrical Engineering, Indian Institute of Technology Bombay '
p2192
sS'http://www.iitb.ac.in/sites/default/files/styles/gallery_item/public/04%20%20Mobike.jpg'
p2193
S'http://www.iitb.ac.in/sites/default/files/styles/gallery_item/public/04%20-%20Mobike.jpg'
p2194
sS'http://www.cse.iitb.ac.in/page222?batch=Phd'
p2195
S'CSE, IIT Bombay'
p2196
sS'http://www.cse.iitb.ac.in/page42'
p2197
S'CSE, IIT Bombay'
p2198
sS'http://www.cse.iitb.ac.in/page41'
p2199
S'CSE, IIT Bombay'
p2200
sS'http://www.cse.iitb.ac.in/page40'
p2201
S'CSE, IIT Bombay'
p2202
sS'http://www.iitb.ac.in/en/gallery/mainbuildinglookingghatkoparhills'
p2203
S'Main Building looking on Ghatkopar Hills | IIT Bombay'
p2204
sS'http://www1.iitb.ac.in/SolarPlant/SolarPlant.htm'
p2205
S'As a step towards'
p2206
sS'http://www1.iitb.ac.in/GGCanada/GGCanada.htm'
p2207
S'Governor General of Canada'
p2208
sS'http://gymkhana.iitb.ac.in/~cultural/infradance.html'
p2209
S'IITB Culturals | Dance room'
p2210
sS'http://www.ee.iitb.ac.in/web/information'
p2211
S'Department of Electrical Engineering, Indian Institute of Technology Bombay '
p2212
sS'http://www.met.iitb.ac.in/main.html?s=y&sec=activities&content=mrs'
p2213
S'MEMS IITBombay'
p2214
sS'http://www.iitb.ac.in/en/activities/mediacell'
p2215
S'Media Cell | IIT Bombay'
p2216
sS'http://www.ee.iitb.ac.in/web/schedule/seminar/Designing_highperformance_organic_transistors_An_effort_towards_flexible_electronics_03_2015'
p2217
S'Department of Electrical Engineering, Indian Institute of Technology Bombay '
p2218
sS'http://www.met.iitb.ac.in/main.html?s=y&sec=people&content=alumni/list'
p2219
S'MEMS IITBombay'
p2220
sS'http://www.aero.iitb.ac.in/home/index.php?option=com_content&task=view&id=58&Itemid=64'
p2221
S'Department of Aerospace Engineering'
p2222
sS'http://www.met.iitb.ac.in/main.html?s=y&sec=research&content=facilities/labList'
p2223
S'MEMS IITBombay'
p2224
sS'http://www1.iitb.ac.in/FDay2014/FDay2014.htm'
p2225
S'Mumbai'
p2226
sS'http://www.iitb.ac.in/newacadhome/cell.jsp'
p2227
S'WELCOME TO THE ACADEMICS HOMEPAGE OF IITB'
p2228
sS'http://www.hss.iitb.ac.in/home/index.php/placement/placementbrochure'
p2229
S'Placement Brochure'
p2230
sS'http://www.idc.iitb.ac.in/NewFacultyPositions/index.html'
p2231
S'New Faculty Positions - Industrial Design Centre at IIT Bombay'
p2232
sS'http://www.cfdvs.iitb.ac.in/'
p2233
S'Centre for Formal Design and Verification of Software'
p2234
sS'http://www.geos.iitb.ac.in/index.php/en/people/188'
p2235
S'video'
p2236
sS'http://www.cse.iitb.ac.in/page222?batch=PhD'
p2237
S'CSE, IIT Bombay'
p2238
sS'http://www.iitb.ac.in/en/researchhighlight/smartsolutionsmartphones'
p2239
S'Smart Solution for Smartphones? | IIT Bombay'
p2240
sS'http://www.idc.iitb.ac.in/events/index.html'
p2241
S'Events, Lecture, Seminar, Workshop, Conference at IDC, IIT Bombay'
p2242
sS'http://www.aero.iitb.ac.in/home/index.php?option=com_jcalpro&Itemid=40&extmode=week&date=20150328'
p2243
S'Department of Aerospace Engineering'
p2244
sS'http://www.iitb.ac.in/en/aboutiitbombay/institutestechnologyact'
p2245
S'Institutes of Technology Act | IIT Bombay'
p2246
sS'http://docs.iitb.ac.in/webmail.tutorial/squirrelmail.html'
p2247
S'Centralized Email Services at IITB'
p2248
sS'http://www.hss.iitb.ac.in/home/index.php/placement'
p2249
S'Placement'
p2250
sS'http://www.iitb.ac.in/en/exchangeopportunitiesiitbstudents'
p2251
S'Exchange Opportunities for IITB Students | IIT Bombay'
p2252
sS'http://www1.iitb.ac.in/academic/AcadCal20141513May.pdf'
p2253
S'http://www1.iitb.ac.in/academic/AcadCal2014-1513May.pdf'
p2254
sS'http://www.met.iitb.ac.in/index.html'
p2255
S'MEMS IITBombay'
p2256
sS'http://www.library.iitb.ac.in/sitemap'
p2257
S'Central Library IIT Bombay | SiteMap'
p2258
sS'http://www.iitb.ac.in/en/gallery/rdburmanandashabhosle'
p2259
S'R D Burman and Asha Bhosle | IIT Bombay'
p2260
sS'http://www1.iitb.ac.in/newacadhome/D42014.pdf'
p2261
S'http://www1.iitb.ac.in/newacadhome/D4-2014.pdf'
p2262
sS'http://www.civil.iitb.ac.in/i_lnk.html'
p2263
S'Department of Civil Engineering, IIT Bombay'
p2264
sS'http://www.ee.iitb.ac.in/web/industrial_relations/chair_prof'
p2265
S'Department of Electrical Engineering, Indian Institute of Technology Bombay '
p2266
sS'http://www.geos.iitb.ac.in/index.php/en/contact'
p2267
S'Contact'
p2268
sS'http://gymkhana.iitb.ac.in/~cultural/cultopediala.html'
p2269
S'IITB Culturals | Cultopedia'
p2270
sS'http://www.civil.iitb.ac.in/cea/aakaar'
p2271
S'Aakaar 2015 | Indian Institute of Technology Bombay'
p2272
sS'http://www1.iitb.ac.in/Raintree.html'
p2273
S'Indian Institute of Technology, Bombay :: About IITB'
p2274
sS'http://www.ese.iitb.ac.in/?q=aboutus/annualreportapril2003march2004energysystemsengineering'
p2275
S'Annual Report April 2003 to March 2004 Energy Systems Engineering | Department of Energy Science and Engineering '
p2276
sS'http://www.che.iitb.ac.in/online/faculty/devangvkhakhar'
p2277
S'Devang V Khakhar | Chemical Engineering, IIT Bombay'
p2278
sS'http://www.iitb.ac.in/en/tender/j6714150'
p2279
S'3D Rendering,Image Analysis &amp; Deconvolution Software with Accompanying Hardware | IIT Bombay'
p2280
sS'http://www.ee.iitb.ac.in/web/research/research_labs'
p2281
S'Department of Electrical Engineering, Indian Institute of Technology Bombay '
p2282
sS'http://www.idc.iitb.ac.in/events/news.html'
p2283
S'Events, Lecture, Seminar, Workshop, Conference at IDC, IIT Bombay'
p2284
sS'http://www.ese.iitb.ac.in/content/talksolutionprocessedsemiconductorsenergyandenvironmentdrsantanubag'
p2285
S'Talk on "Solution Processed Semiconductors for Energy and Environment" by Dr. Santanu Bag | Department of Energy Science and Engineering '
p2286
sS'http://www.iitb.ac.in/sites/default/files/news/201411/IMG_8415.jpg'
p2287
S'http://www.iitb.ac.in/sites/default/files/news/2014-11/IMG_8415.jpg'
p2288
sS'http://www.gate.iitb.ac.in'
p2289
S'Indian Institute of Technology Bombay: GATE-JAM-CEED Office'
p2290
sS'http://gpo.iitb.ac.in/src/compose.php?send_to=neela%40math.iitb.ac.in'
p2291
S'IIT Bombay (wm2new) WEBMAIL - Your session has expired, but will be resumed after logging in again.'
p2292
sS'http://www.idc.iitb.ac.in/people/projectstaff.html'
p2293
S'Project Staff at the Industrial Design Centre at IIT Bombay'
p2294
sS'http://portal.iitb.ac.in/vrp'
p2295
S'Vendor Registration Portal - Home Page'
p2296
sS'http://www.iitb.ac.in/en/award/googlemoocfocusedresearchaward2015'
p2297
S'Google MOOC Focused Research Award 2015 | IIT Bombay'
p2298
sS'http://www.cdeep.iitb.ac.in/'
p2299
S'<title itemprop="name">CDEEP - Centre For Distance Engineering Education Programme'
p2300
sS'http://www.iitb.ac.in/alumni/en/sitemap'
p2301
S'Site Map | Alumni and Corporate Relations'
p2302
sS'http://www.iitb.ac.in/sites/default/files/news/201412/SensiBol_0.jpeg'
p2303
S'http://www.iitb.ac.in/sites/default/files/news/2014-12/SensiBol_0.jpeg'
p2304
sS'http://www.ir.iitb.ac.in'
p2305
S'IIT Bombay \xe2\x80\x94 International Relations | International Relations Office'
p2306
sS'http://gymkhana.iitb.ac.in/~cultural/cultopediadance.html'
p2307
S'IITB Culturals | Cultopedia'
p2308
sS'http://www1.iitb.ac.in/centres.html'
p2309
S'Indian Institute of Technology, Bombay :: Centres'
p2310
sS'http://www.civil.iitb.ac.in/r_ce.html'
p2311
S'Department of Civil Engineering, IIT Bombay'
p2312
sS'http://www.met.iitb.ac.in/main.html?s=y&sec=research&content=seminars'
p2313
S'MEMS IITBombay'
p2314
sS'http://www.civil.iitb.ac.in/'
p2315
S'Department of Civil Engineering, IIT Bombay'
p2316
sS'http://www.iitb.ac.in/awards'
p2317
S'Awards and Honours | IIT Bombay'
p2318
sS'http://www.iitb.ac.in/newacadhome/rules/InformationforfacultyDDbatch08.pdf'
p2319
S'http://www.iitb.ac.in/newacadhome/rules/InformationforfacultyDDbatch08.pdf'
p2320
sS'http://www.iitb.ac.in/en/calendarnodefieldeventdate'
p2321
S'| IIT Bombay'
p2322
sS'http://www.che.iitb.ac.in/online/resources/academicresources/technicalguidesandtools/reportwriting/guidelinespresentationsemin'
p2323
S'Guidelines for the Presentation of Seminar and Project Report | Chemical Engineering, IIT Bombay'
p2324
sS'http://gymkhana.iitb.ac.in/~cultural/paf13.html'
p2325
S"IITB Culturals | PAF '13"
p2326
sS'http://www.iitb.ac.in/en/awards'
p2327
S'Awards and Honours | IIT Bombay'
p2328
sS'http://www.ese.iitb.ac.in/?q=research/phdtheses20002007'
p2329
S'Page not found | Department of Energy Science and Engineering '
p2330
sS'http://www.cse.iitb.ac.in/page202'
p2331
S'CSE, IIT Bombay'
p2332
sS'http://www.iitb.ac.in/calendarnodefieldeventdate'
p2333
S'| IIT Bombay'
p2334
sS'http://www.iitb.ac.in/en/aboutiitbombay/instituteinformationbooklet'
p2335
S'Institute Information Booklet | IIT Bombay'
p2336
sS'http://placements.iitb.ac.in/placements/login.jsp'
p2337
S'http://placements.iitb.ac.in/placements/login.jsp'
p2338
sS'http://www.che.iitb.ac.in/foracademics'
p2339
S'404 Not Found'
p2340
sS'http://www.idc.iitb.ac.in/about/background.htm'
p2341
S' Background and history: Industrial Design Centre (IDC) IIT Bombay, India '
p2342
sS'http://www.ese.iitb.ac.in/opportunities/opportunities'
p2343
S'Opportunities | Department of Energy Science and Engineering '
p2344
sS'https://mail.phys.iitb.ac.in'
p2345
S'Zimbra Web Client Sign In'
p2346
sS'http://www.idc.iitb.ac.in/students/index.html'
p2347
S'students at the Industrial Design Centre at IIT Bombay'
p2348
sS'http://www.me.iitb.ac.in/mefacnew'
p2349
S'ME Department Access System '
p2350
sS'http://www.ese.iitb.ac.in/ESE_old/aboutus/Energy_Science_Engineering.pdf'
p2351
S'http://www.ese.iitb.ac.in/ESE_old/aboutus/Energy_Science_Engineering.pdf'
p2352
sS'http://www.iitb.ac.in/en/gallery?page=1'
p2353
S'Photo Gallery | IIT Bombay'
p2354
sS'http://www.rsic.iitb.ac.in/'
p2355
S'SAIF Web'
p2356
sS'http://www.climate.iitb.ac.in/'
p2357
S'HacKeD by Bangladesh Grey Hat Hackers '
p2358
sS'http://www.iitb.ac.in/en/gallery?page=2'
p2359
S'Photo Gallery | IIT Bombay'
p2360
sS'http://www.bio.iitb.ac.in/people/alumni/mtechalumni'
p2361
S'Untitled Document'
p2362
sS'http://www1.iitb.ac.in/newacadhome/tostat.jsp'
p2363
S'WELCOME TO THE ACADEMICS HOMEPAGE OF IITB'
p2364
sS'http://www.iitb.ac.in/en/breakingnews/sineincubatesensibolreognizedbeststart'
p2365
S'SINE incubate SensiBol reognized as Best Start-up | IIT Bombay'
p2366
sS'http://www.che.iitb.ac.in/online/faculty/rajdipbandyopadhyaya'
p2367
S'Rajdip  Bandyopadhyaya | Chemical Engineering, IIT Bombay'
p2368
sS'http://homepages.iitb.ac.in/~csiitp'
p2369
S'404 Not Found'
p2370
sS'http://www.bio.iitb.ac.in/research/researchgroups'
p2371
S'Research Groups \xc2\xab  Biosciences and Bioengineering'
p2372
sS'http://www.cse.iitb.ac.in/page74'
p2373
S'CSE, IIT Bombay'
p2374
sS'http://www.idc.iitb.ac.in/about/labs.html'
p2375
S' Labs, Laboratories at Industrial Design Centre (IDC) IIT Bombay, India '
p2376
sS'http://www.me.iitb.ac.in/me/contact.php'
p2377
S'Mechanical Engineering'
p2378
sS'http://www.bio.iitb.ac.in/~sanjeeva/psi2014/'
p2379
S'International Conference on Proteomics  2014'
p2380
sS'http://www.me.iitb.ac.in/me/faculty/staffnew.php'
p2381
S'Mechanical Engineering'
p2382
sS'http://www.cse.iitb.ac.in/webcal/week.php?user=_NUC_department'
p2383
S'CSE web calendar'
p2384
sS'http://www.ee.iitb.ac.in/web/faculty/homepage/karandi'
p2385
S'Department of Electrical Engineering, Indian Institute of Technology Bombay '
p2386
sS'http://www.iitb.ac.in/en/breakingnews/presentationteachingandrdawards'
p2387
S'Presentation of Teaching and R&amp;D Awards | IIT Bombay'
p2388
sS'http://www.iitb.ac.in/~crnts/Home.html'
p2389
S'CRNTS'
p2390
sS'http://www.iitb.ac.in/acadpublic/Course.html'
p2391
S'IIT Bombay, Department Wise Course Information'
p2392
sS'http://www.ese.iitb.ac.in/ESE_old/'
p2393
S'Department of Energy Science and Engineering :: Home'
p2394
sS'http://www.idc.iitb.ac.in/academics/phd.html'
p2395
S'Ph D Research Programme: Industrial Design Centre (IDC) IIT Bombay, India '
p2396
sS'http://www.bio.iitb.ac.in/people/students/msci'
p2397
S'MSc I \xc2\xab  Biosciences and Bioengineering'
p2398
sS'http://www.iitb.ac.in/academic/toacadcalender.jsp'
p2399
S'404 Not Found'
p2400
sS'http://www.idc.iitb.ac.in/hindi/'
p2401
S' \xe0\xa4\x94\xe0\xa4\xa6\xe0\xa5\x8d\xe0\xa4\xaf\xe0\xa5\x8b\xe0\xa4\x97\xe0\xa4\xbf\xe0\xa4\x95 \xe0\xa4\x85\xe0\xa4\xad\xe0\xa4\xbf\xe0\xa4\x95\xe0\xa4\xb2\xe0\xa5\x8d\xe0\xa4\xaa \xe0\xa4\x95\xe0\xa5\x87\xe0\xa4\x82\xe0\xa4\xa6\xe0\xa5\x8d\xe0\xa4\xb0 (IDC), \xe0\xa4\xad\xe0\xa4\xbe\xe0\xa4\xb0\xe0\xa4\xa4\xe0\xa5\x80\xe0\xa4\xaf \xe0\xa4\xaa\xe0\xa5\x8d\xe0\xa4\xb0\xe0\xa5\x8c\xe0\xa4\xa6\xe0\xa5\x8d\xe0\xa4\xaf\xe0\xa5\x8b\xe0\xa4\x97\xe0\xa4\xbf\xe0\xa4\x95\xe0\xa5\x80 \xe0\xa4\xb8\xe0\xa4\x82\xe0\xa4\xb8\xe0\xa5\x8d\xe0\xa4\xa5\xe0\xa4\xbe\xe0\xa4\xa8 \xe0\xa4\xae\xe0\xa5\x81\xe0\xa4\x82\xe0\xa4\xac\xe0\xa4\x88 (IIT Bombay), \xe0\xa4\xad\xe0\xa4\xbe\xe0\xa4\xb0\xe0\xa4\xa4 '
p2402
sS'http://www.idc.iitb.ac.in/academics/mobility_&_vehicle_design.html'
p2403
S' Mobility and Vehicle Design : Industrial Design Centre (IDC) IIT Bombay, India '
p2404
sS'http://www.hss.iitb.ac.in/home/index.php/people/faculty'
p2405
S'faculty new'
p2406
sS'http://www.geos.iitb.ac.in/index.php/en/alumni'
p2407
S'Alumni Directory'
p2408
sS'http://gymkhana.iitb.ac.in/~cultural/cultopediamusic.html'
p2409
S'IITB Culturals | Cultopedia'
p2410
sS'http://www.idc.iitb.ac.in/alumni/index.html'
p2411
S'Alumni designers of the Industrial Design Centre at IIT Bombay, India'
p2412
sS'http://placements.iitb.ac.in/placements/complogin.jsp'
p2413
S'http://placements.iitb.ac.in/placements/complogin.jsp'
p2414
sS'http://placements.iitb.ac.in/contact/rrdp.html'
p2415
S'Placements, IIT Bombay'
p2416
sS'http://www.iitb.ac.in/en/education/coursesiitb'
p2417
S'Courses at IITB | IIT Bombay'
p2418
sS'http://www.ee.iitb.ac.in/web/research'
p2419
S'Department of Electrical Engineering, Indian Institute of Technology Bombay '
p2420
sS'http://www2.iitb.ac.in/academics/en/phd'
p2421
S'404 Not Found'
p2422
sS'http://www.hss.iitb.ac.in/home/index.php/courses/phd'
p2423
S'PhD(Courses)'
p2424
sS'http://www.iitb.ac.in/en/researchdomain/healthcare'
p2425
S'Healthcare | IIT Bombay'
p2426
sS'http://www.iitb.ac.in/en/students/informationprospectivestudents'
p2427
S'Information for Prospective Students | IIT Bombay'
p2428
sS'http://www.iitb.ac.in/en/aboutiitbombay/counsellingcarecenter'
p2429
S'Counselling Care Center | IIT Bombay'
p2430
sS'http://www.iitb.ac.in/en/externalrelations/alumnirelations'
p2431
S'Alumni Relations | IIT Bombay'
p2432
sS'http://www.bio.iitb.ac.in/academics/dualdegree'
p2433
S'Dual Degree \xc2\xab  Biosciences and Bioengineering'
p2434
sS'http://www.iitb.ac.in/~pge/'
p2435
S'Indian Institute of Technology Bombay: GATE-JAM-CEED Office'
p2436
sS'http://www.iitb.ac.in/alumni/en/connect'
p2437
S'Connect | Alumni and Corporate Relations'
p2438
sS'http://www.library.iitb.ac.in/blog/newarrivalsdisplaybookslistfrom23022015to01032015/'
p2439
S'Central Library IIT Bombay | New Arrivals: Display Books List from 23/02/2015 To 01/03/2015'
p2440
sS'http://www.iitb.ac.in/en/rtihome'
p2441
S'RTI Home | IIT Bombay'
p2442
sS'http://www.cse.iitb.ac.in/page222?batch=DD5'
p2443
S'CSE, IIT Bombay'
p2444
sS'http://www.idc.iitb.ac.in/research/researchprojects.html'
p2445
S'Research Projects: Industrial Design Centre (IDC) IIT Bombay, India '
p2446
sS'http://www.ese.iitb.ac.in/?q=student/1'
p2447
S'Department of Energy Science and Engineering '
p2448
sS'http://www.iitb.ac.in/en/careersiitb/facultyhandbook'
p2449
S'Faculty Handbook | IIT Bombay'
p2450
sS'http://gymkhana.iitb.ac.in/~cultural/cultopediafnm.html'
p2451
S'IITB Culturals | Cultopedia'
p2452
sS'http://www.iitb.ac.in/sites/default/files/article/images/iitbmap2d_0.jpg'
p2453
S'http://www.iitb.ac.in/sites/default/files/article/images/iitbmap2d_0.jpg'
p2454
sS'http://gymkhana.iitb.ac.in/~scp/'
p2455
S'ISCP IIT BOMBAY'
p2456
sS'http://www.ese.iitb.ac.in/content/cepcourseenergymanagement0'
p2457
S'CEP Course on Energy Management | Department of Energy Science and Engineering '
p2458
sS'http://www.geos.iitb.ac.in/'
p2459
S'Department of Earth Sciences, IIT Bombay'
p2460
sS'http://www1.iitb.ac.in/WomensCell/'
p2461
S"Women's Cell IITB"
p2462
sS'http://gpo.iitb.ac.in/src/compose.php?send_to=hp%40ee.iitb.ac.in'
p2463
S'IIT Bombay (wm2new) WEBMAIL - Your session has expired, but will be resumed after logging in again.'
p2464
sS'http://www.bio.iitb.ac.in/people/students'
p2465
S'Students \xc2\xab  Biosciences and Bioengineering'
p2466
sS'http://www.iitb.ac.in/alumni/en/people'
p2467
S'People at the Office | Alumni and Corporate Relations'
p2468
sS'http://www.me.iitb.ac.in/me/chair.php'
p2469
S'Mechanical Engineering'
p2470
sS'http://www.hss.iitb.ac.in/home/index.php/home/history'
p2471
S'History'
p2472
sS'http://www.iitb.ac.in/en/calendarnodefieldeventdate/month/201504'
p2473
S'| IIT Bombay'
p2474
sS'http://www.iitb.ac.in/en/calendarnodefieldeventdate/month/201502'
p2475
S'| IIT Bombay'
p2476
sS'http://www.che.iitb.ac.in/online/education/phd/phdadmissioninformation/phdadmissionapplicationproceduredecember2014roundinte'
p2477
S'PhD Admission Application Procedure for the December 2014 Round Of Interviews | Chemical Engineering, IIT Bombay'
p2478
sS'http://www.met.iitb.ac.in/main.html?s=y&sec=resources&content=compRoom'
p2479
S'MEMS IITBombay'
p2480
sS'http://www.ee.iitb.ac.in/web/about_ee/phone_directory'
p2481
S'Department of Electrical Engineering, Indian Institute of Technology Bombay '
p2482
sS'http://www.aero.iitb.ac.in/home/index.php?option=com_jcalpro&Itemid=40&extmode=day&date=20150326'
p2483
S'Department of Aerospace Engineering'
p2484
sS'http://www.che.iitb.ac.in/online/forums/201404245044'
p2485
S'INSA award for Abhijit | Chemical Engineering, IIT Bombay'
p2486
sS'http://www.che.iitb.ac.in/online/services'
p2487
S'Services | Chemical Engineering, IIT Bombay'
p2488
sS'http://www.aero.iitb.ac.in/home/index.php?option=com_jcalpro&Itemid=40&extmode=day&date=20150321'
p2489
S'Department of Aerospace Engineering'
p2490
sS'http://pali.hss.iitb.ac.in/src/login.php'
p2491
S'http://pali.hss.iitb.ac.in/src/login.php'
p2492
sS'http://www1.iitb.ac.in/newacadhome/rules.jsp'
p2493
S'WELCOME TO THE ACADEMICS HOMEPAGE OF IITB'
p2494
sS'http://www.iitb.ac.in/newacadhome/rules/newugrules.html'
p2495
S'Link to rules and regulations being followed at IITB'
p2496
sS'http://www.iitb.ac.in/~crnts/Preamble.html'
p2497
S'CRNTS'
p2498
sS'http://www.iitb.ac.in/newacadhome/Classrooms201515Jan.pdf'
p2499
S'http://www.iitb.ac.in/newacadhome/Classrooms201515Jan.pdf'
p2500
sS'http://www.met.iitb.ac.in/www.corsym.com'
p2501
S'404 Not Found'
p2502
sS'http://www.aero.iitb.ac.in/home/index.php?option=com_jcalpro&Itemid=40&extmode=day&date=20150329'
p2503
S'Department of Aerospace Engineering'
p2504
sS'http://www.hss.iitb.ac.in/HSS_IT_Policy.pdf'
p2505
S'http://www.hss.iitb.ac.in/HSS_IT_Policy.pdf'
p2506
sS'http://www1.iitb.ac.in/site_map.htm'
p2507
S'IIT Bombay SiteMap'
p2508
sS'http://www.iitb.ac.in/contact/institutefunctionaries'
p2509
S'Institute Functionaries | IIT Bombay'
p2510
sS'http://www.iitb.ac.in/sites/default/files/employees/pujanew1.jpg'
p2511
S'http://www.iitb.ac.in/sites/default/files/employees/pujanew1.jpg'
p2512
sS'http://www.hss.iitb.ac.in/home/index.php/people/projectstaff'
p2513
S'Staff'
p2514
sS'http://gymkhana.iitb.ac.in/~cultural/achpfa.html'
p2515
S'IITB Culturals | Photography and Fine Arts'
p2516
sS'http://www.ese.iitb.ac.in/publications'
p2517
S'Publications | Department of Energy Science and Engineering '
p2518
sS'http://www1.iitb.ac.in/students/hostel6.html'
p2519
S'Hostels - IIT Bombay'
p2520
sS'http://www1.iitb.ac.in/students/clubs.html'
p2521
S'Organizations-Clubs- IIT Bombay'
p2522
sS'http://placements.iitb.ac.in/files/IITBPlacementBrochure201213.pdf'
p2523
S'http://placements.iitb.ac.in/files/IIT-BPlacementBrochure2012-13.pdf'
p2524
sS'http://www1.iitb.ac.in/newacadhome/toadmission.jsp'
p2525
S'WELCOME TO THE ACADEMICS HOMEPAGE OF IITB'
p2526
sS'http://www.idc.iitb.ac.in/admissions/UCEEDbrochure_Post_Senate_2015.pdf'
p2527
S'http://www.idc.iitb.ac.in/admissions/U-CEED-brochure_Post_Senate_2015.pdf'
p2528
sS'https://systems.cse.iitb.ac.in/systems'
p2529
S'CSE Sysads'
p2530
sS'http://www.iitb.ac.in/en/researchhighlight/injectablesosteoarthritis'
p2531
S'Injectables for Osteoarthritis | IIT Bombay'
p2532
sS'http://www.iitb.ac.in/en/careersandjobsiitbombay'
p2533
S'Careers and Jobs at IIT Bombay | IIT Bombay'
p2534
sS'http://iloha.iitb.ac.in'
p2535
S'IlohaMail'
p2536
sS'http://www.ircc.iitb.ac.in/Partnership/'
p2537
S'Partner with us'
p2538
sS'http://www.iitb.ac.in/newacadhome/offdetail.jsp'
p2539
S'WELCOME TO THE ACADEMICS HOMEPAGE OF IITB'
p2540
sS'http://www.ee.iitb.ac.in/web/schedule/seminar/Integrated_Nanophotonic_Platforms_A_Tool_Box_for_Precision__Metrology_03_2015'
p2541
S'Department of Electrical Engineering, Indian Institute of Technology Bombay '
p2542
sS'http://www1.iitb.ac.in/students/hostel2.html'
p2543
S'Hostels - IIT Bombay'
p2544
sS'http://www.ee.iitb.ac.in/webmail/src/login.php'
p2545
S'http://www.ee.iitb.ac.in/webmail/src/login.php'
p2546
sS'http://www.iitb.ac.in/alumni/en/content/howmakegift'
p2547
S'How to make a gift | Alumni and Corporate Relations'
p2548
sS'http://www.aero.iitb.ac.in/home/index.php?option=com_jcalpro&Itemid=40'
p2549
S'Department of Aerospace Engineering'
p2550
sS'http://www.met.iitb.ac.in/main.html?s=y&sec=activities&content=dhatuki/dhatukiIssues'
p2551
S'MEMS IITBombay'
p2552
sS'http://www.hss.iitb.ac.in/home/index.php/home/headofdept'
p2553
S'Hod'
p2554
sS'http://www.iitb.ac.in'
p2555
S'IIT Bombay | IIT Bombay'
p2556
sS'http://www.ese.iitb.ac.in/news'
p2557
S'News Page | Department of Energy Science and Engineering '
p2558
sS'http://gymkhana.iitb.ac.in/~cultural/tally12.html'
p2559
S'IITB Culturals | GC Tally 2012-13 '
p2560
sS'http://www.iitb.ac.in/alumni/en/content/alumnibodies'
p2561
S'Alumni bodies | Alumni and Corporate Relations'
p2562
sS'http://www.ee.iitb.ac.in/web/about_ee/ee_office'
p2563
S'Department of Electrical Engineering, Indian Institute of Technology Bombay '
p2564
sS'http://www.che.iitb.ac.in/online/faculty/kvvenkatesh'
p2565
S'K. V. Venkatesh | Chemical Engineering, IIT Bombay'
p2566
sS'http://www.iitb.ac.in/en/aboutiitbombay/institutehistory'
p2567
S'Institute History | IIT Bombay'
p2568
sS'http://www.ir.iitb.ac.in/wpcontent/uploads/M.Des_.Appform.pdf'
p2569
S'http://www.ir.iitb.ac.in/wp-content/uploads/M.Des_.-App-form.pdf'
p2570
sS'http://www.idc.iitb.ac.in/resources/index.html'
p2571
S'Resources for Designers: Industrial Design Centre at IIT Bombay'
p2572
sS'http://www.aero.iitb.ac.in/index.php?date=20150201'
p2573
S'Department of Aerospace Engineering'
p2574
sS'http://www.che.iitb.ac.in/online/forums/201406225081'
p2575
S'S R Patwardhan passes away | Chemical Engineering, IIT Bombay'
p2576
sS'http://www.me.iitb.ac.in/me/labs.php'
p2577
S'Mechanical Engineering'
p2578
sS'https://www.ee.iitb.ac.in/web//files/announcements/ideathon_2015.jpg'
p2579
S'https://www.ee.iitb.ac.in/web//files/announcements/ideathon_2015.jpg'
p2580
sS'http://www.iitb.ac.in/~crnts/Hindi'
p2581
S'\xe0\xa4\xa8\xe0\xa5\x88\xe0\xa4\xa8\xe0\xa5\x8b \xe0\xa4\xaa\xe0\xa5\x8d\xe0\xa4\xb0\xe0\xa5\x8c\xe0\xa4\xa6\xe0\xa5\x8d\xe0\xa4\xaf\xe0\xa5\x8b\xe0\xa4\x97\xe0\xa4\xbf\xe0\xa4\x95\xe0\xa5\x80 \xe0\xa4\x8f\xe0\xa4\xb5\xe0\xa4\x82 \xe0\xa4\xb5\xe0\xa4\xbf\xe0\xa4\x9c\xe0\xa5\x8d\xe0\xa4\x9e\xe0\xa4\xbe\xe0\xa4\xa8 \xe0\xa4\x85\xe0\xa4\xa8\xe0\xa5\x81\xe0\xa4\xb8\xe0\xa4\x82\xe0\xa4\xa7\xe0\xa4\xbe\xe0\xa4\xa8 \xe0\xa4\x95\xe0\xa5\x87\xe0\xa4\x82\xe0\xa4\xa6\xe0\xa5\x8d\xe0\xa4\xb0 '
p2582
sS'http://www.iitb.ac.in/sites/default/files/FacultyHandbook2014.pdf'
p2583
S'http://www.iitb.ac.in/sites/default/files/Faculty-Handbook-2014.pdf'
p2584
sS'http://www.idc.iitb.ac.in/resources/designetc.html'
p2585
S'Design in India: Industrial Design Centre (IDC) IIT Bombay, India '
p2586
sS'http://www.idc.iitb.ac.in/academics/visualcommunication.html'
p2587
S' Visual Communication Programme: Industrial Design Centre (IDC) IIT Bombay, India '
p2588
sS'http://www.iitb.ac.in/sites/default/files/styles/gallery_item/public/Ch%203.2%20%20Indira%20Gandhi%20at%20Convo.jpg'
p2589
S'http://www.iitb.ac.in/sites/default/files/styles/gallery_item/public/Ch%203.2%20-%20Indira%20Gandhi%20at%20Convo.jpg'
p2590
sS'http://www.geos.iitb.ac.in/index.php'
p2591
S'Department of Earth Sciences, IIT Bombay'
p2592
sS'http://www.math.iitb.ac.in/acad/timetable/MidSemExamTTSpring201415.pdf'
p2593
S'http://www.math.iitb.ac.in/acad/timetable/Mid-Sem-Exam-TT-Spring-2014-15.pdf'
p2594
sS'http://gymkhana.iitb.ac.in/~cultural/council14.html'
p2595
S'IITB Culturals | Council 2013-14'
p2596
sS'http://www.iitb.ac.in/en/education/studentcompanionprogramme'
p2597
S'Student companion programme | IIT Bombay'
p2598
sS'http://www.met.iitb.ac.in/main.html?s=y&sec=research/section&content=research@mems'
p2599
S'MEMS IITBombay'
p2600
sS'http://www.che.iitb.ac.in/forindustry'
p2601
S'404 Not Found'
p2602
sS'http://www.iitb.ac.in/students/aawaaz.html'
p2603
S'Error | IIT Bombay'
p2604
sS'http://www.iitb.ac.in/en/externalrelations/corporaterelations'
p2605
S'Corporate Relations | IIT Bombay'
p2606
sS'http://www.iitb.ac.in/newacadhome/AcademicCalendar201112.pdf'
p2607
S'http://www.iitb.ac.in/newacadhome/AcademicCalendar2011-12.pdf'
p2608
sS'http://www.civil.iitb.ac.in/tpmdc/'
p2609
S'TPMDC 2014'
p2610
sS'http://www.iitb.ac.in/~crnts/Contact.html'
p2611
S'CRNTS'
p2612
sS'http://gymkhana.iitb.ac.in/~smp'
p2613
S'IITB - Student Mentor Programme'
p2614
sS'http://www.hss.iitb.ac.in/home/index.php/component/banners/click/9'
p2615
S'Dept of Humanities &amp; Social Sciences'
p2616
sS'http://opac.library.iitb.ac.in/'
p2617
S'Central Library, IIT Bombay catalog'
p2618
sS'http://www.hss.iitb.ac.in/home/index.php/component/banners/click/1'
p2619
S'Dept of Humanities &amp; Social Sciences'
p2620
sS'http://www.iitb.ac.in/en/education/mastersapplicants'
p2621
S"Master's Applicants | IIT Bombay"
p2622
sS'http://www.hss.iitb.ac.in/home/index.php/courses'
p2623
S'Courses'
p2624
sS'https://gpo.iitb.ac.in/'
p2625
S'(IITB wm3_secure 20140819) - Login'
p2626
sS'http://www.ircc.iitb.ac.in/fellowship/HowApply.html'
p2627
S''
sS'http://www.met.iitb.ac.in/main.html?s=y&sec=people&content=students'
p2628
S'MEMS IITBombay'
p2629
sS'http://www.iitb.ac.in/sites/default/files/news/201409/Thankyouteacher.png'
p2630
S'http://www.iitb.ac.in/sites/default/files/news/2014-09/Thank-you-teacher.png'
p2631
sS'http://www.che.iitb.ac.in/online/research'
p2632
S'Research | Chemical Engineering, IIT Bombay'
p2633
sS'http://www.ese.iitb.ac.in/sites/default/files/2014%20first%20year%20accommodation%20scheme.xlsx_.pdf'
p2634
S'http://www.ese.iitb.ac.in/sites/default/files/2014%20first%20year%20accommodation%20scheme.xlsx_.pdf'
p2635
sS'http://www1.iitb.ac.in/Newsletter3.pdf'
p2636
S'http://www1.iitb.ac.in/Newsletter3.pdf'
p2637
sS'http://www.ee.iitb.ac.in/web/faculty/homepage/animesh'
p2638
S'Department of Electrical Engineering, Indian Institute of Technology Bombay '
p2639
sS'http://www.idc.iitb.ac.in/about/library.html'
p2640
S' Library Facility: Industrial Design Centre (IDC) IIT Bombay, India '
p2641
sS'http://www.iitb.ac.in/~crnts/Structure_operation.html'
p2642
S'CRNTS'
p2643
sS'http://www.idc.iitb.ac.in/admissions/procedure.html'
p2644
S'Procedure for Admission to the Industrial Design Centre at IIT Bombay'
p2645
sS'http://www.me.iitb.ac.in/me/studentsnotice.html'
p2646
S'Circulars'
p2647
sS'http://www.che.iitb.ac.in/online/people'
p2648
S'People | Chemical Engineering, IIT Bombay'
p2649
sS'http://www.ese.iitb.ac.in/icaer2015/'
p2650
S'ICAER 2015'
p2651
sS'http://www1.iitb.ac.in/COEST/COEST.htm'
p2652
S'Centre of Excellence in Steel Te'
p2653
sS'http://www.geos.iitb.ac.in/images/stories/drrrnlecture.pdf'
p2654
S'http://www.geos.iitb.ac.in/images/stories/drrrnlecture.pdf'
p2655
sS'http://placements.iitb.ac.in/whyrecruit.html'
p2656
S'Placements, IIT Bombay'
p2657
sS'http://www.met.iitb.ac.in/main.html?s=y&sec=academics&content=prog'
p2658
S'MEMS IITBombay'
p2659
sS'http://www.met.iitb.ac.in/main.html?s=y&sec=announcements&content=circulars'
p2660
S'MEMS IITBombay'
p2661
sS'http://www1.iitb.ac.in/WomensCell/data/kkprasadTrueempowerment'
p2662
S'404 Not Found'
p2663
sS'https://portal.iitb.ac.in/vrp_about.jsp'
p2664
S'404 Not Found'
p2665
sS'http://gymkhana.iitb.ac.in/~cultural/paf14.html'
p2666
S"IITB Culturals | PAF '14"
p2667
sS'http://www.iitb.ac.in/en/externalrelations/donorrelationshipprograms'
p2668
S'Donor Relationship Programs | IIT Bombay'
p2669
sS'http://www.cse.iitb.ac.in/page130'
p2670
S'CSE, IIT Bombay'
p2671
sS'http://www.iitb.ac.in/tenders/archive'
p2672
S'Tenders Archive | IIT Bombay'
p2673
sS'http://www1.iitb.ac.in/events/events.html'
p2674
S'Indian Institute of Technology, Bombay :: Events'
p2675
sS'http://gymkhana.iitb.ac.in/gymkhana.htm'
p2676
S'IITB Students Gymkhana '
p2677
sS'http://www.met.iitb.ac.in/~texture'
p2678
S'Home'
p2679
sS'http://www.library.iitb.ac.in/aboutus/ourlibrary'
p2680
S'Central Library IIT Bombay | Our Library'
p2681
sS'http://www.met.iitb.ac.in/main.html?s=y&sec=academics&content=admissionMain'
p2682
S'MEMS IITBombay'
p2683
sS'http://www.iitb.ac.in/en/researchanddevelopment/sophisticatedanalyticalinstrumentsfacility'
p2684
S'Sophisticated Analytical Instruments Facility | IIT Bombay'
p2685
sS'http://www.che.iitb.ac.in/online/faculty/sachincpatwardhan'
p2686
S'Sachin C Patwardhan | Chemical Engineering, IIT Bombay'
p2687
sS'http://mail.phy.iitb.ac.in'
p2688
S'Physics WebMail - Login'
p2689
sS'Upcoming'
p2690
S'Seminar Announcements @ IIT Bombay'
p2691
sS'http://www.met.iitb.ac.in/main.html?s=y&sec=people&content=facultyMain'
p2692
S'MEMS IITBombay'
p2693
sS'http://www.hss.iitb.ac.in/home/index.php/people/students/phdstudents'
p2694
S'Phd Stuents'
p2695
sS'http://www1.iitb.ac.in/GuestHouse/index.html'
p2696
S'Guest House IIT Bombay'
p2697
sS'http://www.iitb.ac.in/en/education/studentmentorship'
p2698
S'Student mentorship | IIT Bombay'
p2699
sS'http://www.iitb.ac.in/en/facilitiesiitbombay'
p2700
S'Facilities at IIT Bombay | IIT Bombay'
p2701
sS'http://www.iitb.ac.in/alumni/en/content/retiredfacultywellnessfund'
p2702
S'Retired Faculty Wellness Fund | Alumni and Corporate Relations'
p2703
sS'http://www.iitb.ac.in/sites/default/files/GuidePRMS.pdf'
p2704
S'http://www.iitb.ac.in/sites/default/files/GuidePRMS.pdf'
p2705
sS'http://www.iitb.ac.in/en/researchdomain/livelihood'
p2706
S'Livelihood | IIT Bombay'
p2707
sS'http://www.iitb.ac.in/allnews'
p2708
S'All News | IIT Bombay'
p2709
sS'http://www.che.iitb.ac.in/online/forums/201311234868'
p2710
S'Venkatesh takes over as Head | Chemical Engineering, IIT Bombay'
p2711
sS'http://placements.iitb.ac.in/whyrecruit/all_round_development.html'
p2712
S'Placements, IIT Bombay'
p2713
sS'http://www1.iitb.ac.in/WomensCell/ppt01.pdf'
p2714
S'http://www1.iitb.ac.in/WomensCell/ppt01.pdf'
p2715
sS'http://www.idc.iitb.ac.in/events/idcawards.html'
p2716
S'Awards for IDCians: Industrial Design Centre at IIT Bombay'
p2717
sS'http://www1.iitb.ac.in/facilities/kv.html'
p2718
S'Kendriya Vidyalaya - IIT Bombay'
p2719
sS'http://www.hss.iitb.ac.in/home/index.php/courses/mphilplanningadevelopment'
p2720
S'MPhil(Course)'
p2721
sS'http://www.library.iitb.ac.in/newsearchbook'
p2722
S'Libsuite-WebOPAC-Renew Documents'
p2723
sS'http://www.library.iitb.ac.in/eresources/'
p2724
S'Central Library IIT Bombay | E-Resources'
p2725
sS'http://www.iitb.ac.in/en/breakingnews/iitbstudentswinkyooriousdesigncompetition'
p2726
S'IITB students win Kyoorious Design Competition | IIT Bombay'
p2727
sS'http://www.iitb.ac.in/~crnts/Facilities.html'
p2728
S'CRNTS'
p2729
sS'http://www.cse.iitb.ac.in/page222'
p2730
S'CSE, IIT Bombay'
p2731
sS'http://www.cse.iitb.ac.in/page223'
p2732
S'CSE, IIT Bombay'
p2733
sS'http://www1.iitb.ac.in/deanpl/contactUs1.html'
p2734
S'Untitled Document'
p2735
sS'http://www.iitb.ac.in/newacadhome/D32014.pdf'
p2736
S'http://www.iitb.ac.in/newacadhome/D3-2014.pdf'
p2737
sS'http://www.it.iitb.ac.in/admissions/'
p2738
S'Admissions '
p2739
sS'http://www.iitb.ac.in/en/researchdomain/advancedmaterials'
p2740
S'Advanced Materials | IIT Bombay'
p2741
sS'http://www1.iitb.ac.in/Information/policy.html'
p2742
S'Information Display Policy'
p2743
sS'http://www.cse.iitb.ac.in/page14'
p2744
S'CSE, IIT Bombay'
p2745
sS'http://www.cse.iitb.ac.in/page15'
p2746
S'CSE, IIT Bombay'
p2747
sS'http://www.cse.iitb.ac.in/page16'
p2748
S'CSE, IIT Bombay'
p2749
sS'http://www.cse.iitb.ac.in/page17'
p2750
S'CSE, IIT Bombay'
p2751
sS'http://www.che.iitb.ac.in/forprospectivefaculty'
p2752
S'404 Not Found'
p2753
sS'http://www.cse.iitb.ac.in/page12'
p2754
S'CSE, IIT Bombay'
p2755
sS'http://www1.iitb.ac.in/deanpl/tender.html'
p2756
S'Untitled Document'
p2757
sS'http://www.math.iitb.ac.in'
p2758
S'Department of Mathematics, IIT Bombay'
p2759
sS'http://www.met.iitb.ac.in/main.html?s=y&sec=academics&content=academicsMain'
p2760
S'MEMS IITBombay'
p2761
sS'http://www1.iitb.ac.in/AnnualReport.html'
p2762
S'Indian Institute of Technology, Bombay :: About IITB'
p2763
sS'http://www1.iitb.ac.in/deanpl/worksmanual2014.pdf'
p2764
S'http://www1.iitb.ac.in/deanpl/worksmanual2014.pdf'
p2765
sS'http://www.iitb.ac.in/newacadhome/roombook.jsp'
p2766
S'Room Booking'
p2767
sS'http://www.casde.iitb.ac.in/people/'
p2768
S'CASDE - CASDE Family'
p2769
sS'http://www.iitb.ac.in/en/gallery/radhakrishnanandbose'
p2770
S'Radhakrishnan and Bose | IIT Bombay'
p2771
sS'http://www.cse.iitb.ac.in/webcal/view_entry.php?id=4343&date=20150310&user=_NUC_department'
p2772
S'CSE web calendar'
p2773
sS'http://www.ircc.iitb.ac.in/IRCCWebpage/rnd/Licensing.jsp'
p2774
S'Patents / Technologies available for Licensing'
p2775
sS'http://www.library.iitb.ac.in/eresources/guidelines/'
p2776
S'Central Library IIT Bombay | Guidelines'
p2777
sS'http://www.idc.iitb.ac.in/resources/designareas.htm'
p2778
S'Design-Areas: Industrial Design Centre (IDC) IIT Bombay, India '
p2779
sS'http://gymkhana.iitb.ac.in/~cultural/dram.html'
p2780
S''
sS'http://www.hindi.iitb.ac.in/~hindi/'
p2781
S' \xe0\xa4\xb9\xe0\xa4\xbf\xe0\xa4\x82\xe0\xa4\xa6\xe0\xa5\x80 \xe0\xa4\x95\xe0\xa4\x95\xe0\xa5\x8d\xe0\xa4\xb7, \xe0\xa4\xad\xe0\xa4\xbe\xe0\xa4\xb0\xe0\xa4\xa4\xe0\xa5\x80\xe0\xa4\xaf \xe0\xa4\xaa\xe0\xa5\x8d\xe0\xa4\xb0\xe0\xa5\x8c\xe0\xa4\xa6\xe0\xa5\x8d\xe0\xa4\xaf\xe0\xa5\x8b\xe0\xa4\x97\xe0\xa4\xbf\xe0\xa4\x95\xe0\xa5\x80 \xe0\xa4\xb8\xe0\xa4\x82\xe0\xa4\xb8\xe0\xa5\x8d\xe0\xa4\xa5\xe0\xa4\xbe\xe0\xa4\xa8 \xe0\xa4\xae\xe0\xa5\x81\xe0\xa4\x82\xe0\xa4\xac\xe0\xa4\x88  '
p2782
sS'http://www.me.iitb.ac.in/~sae/'
p2783
S'404 Not Found'
p2784
sS'http://www.che.iitb.ac.in/online/'
p2785
S'Chemical Engineering, IIT Bombay'
p2786
sS'http://www.iitb.ac.in/sites/default/files/reshigh/201501/Chandrayan2.JPG'
p2787
S'http://www.iitb.ac.in/sites/default/files/reshigh/2015-01/Chandrayan2.JPG'
p2788
sS'http://www.bio.iitb.ac.in'
p2789
S' Biosciences and Bioengineering'
p2790
sS'http://www.cse.iitb.ac.in/page141'
p2791
S'CSE, IIT Bombay'
p2792
sS'http://www.cse.iitb.ac.in/page140'
p2793
S'CSE, IIT Bombay'
p2794
sS'http://www.cse.iitb.ac.in/page142'
p2795
S'CSE, IIT Bombay'
p2796
sS'http://www.iitb.ac.in/en/award/bestpaperaward2015'
p2797
S'Best Paper Award 2015 | IIT Bombay'
p2798
sS'http://www.iitb.ac.in/en/award/acmfellow2014'
p2799
S'ACM Fellow 2014 | IIT Bombay'
p2800
sS'http://www.jeeadv.iitb.ac.in'
p2801
S'Announcements | JEE (Advanced) 2015'
p2802
sS'http://www.iitb.ac.in/en/aboutiitbombay/iitbdirectors'
p2803
S'List of Directors | IIT Bombay'
p2804
sS'http://gymkhana.iitb.ac.in/~cultural/inframusic.html'
p2805
S'IITB Culturals | Music Room'
p2806
sS'http://www.iitb.ac.in/en/gallery/4tuplebiking'
p2807
S'4-Tuple Biking | IIT Bombay'
p2808
sS'http://www.idc.iitb.ac.in/admissions/faqs.html'
p2809
S"FAQ's for Admission to Industrial Design Centre at IIT Bombay"
p2810
sS'http://www.iitb.ac.in/en/gallery/indiragandhiandconvo'
p2811
S'Indira Gandhi and Convo | IIT Bombay'
p2812
s.